
 Start         Length     Name                   Class
 0001:00401000 00095740H .text                   CODE
 0002:00497000 00000580H .itext                  ICODE
 0003:00498000 00004788H .data                   DATA
 0004:0049D000 00006148H .bss                    BSS
 0005:00000000 000000ECH .tls                    TLS


Detailed map of segments

 0001:00000000 00009A89 C=CODE     S=.text    G=(none)   M=System   ACBP=A9
 0001:00009A8C 0000010D C=CODE     S=.text    G=(none)   M=SysInit  ACBP=A9
 0001:00009B9C 000000D2 C=CODE     S=.text    G=(none)   M=Types    ACBP=A9
 0001:00009C70 00001251 C=CODE     S=.text    G=(none)   M=Windows  ACBP=A9
 0001:0000AEC4 0000148F C=CODE     S=.text    G=(none)   M=madNVPrgrAlert ACBP=A9
 0001:0000C354 000002A6 C=CODE     S=.text    G=(none)   M=madTypes ACBP=A9
 0001:0000C5FC 0000311C C=CODE     S=.text    G=(none)   M=madStrings ACBP=A9
 0001:0000F718 00004C9E C=CODE     S=.text    G=(none)   M=madZip   ACBP=A9
 0001:000143B8 00002F44 C=CODE     S=.text    G=(none)   M=madNVBitmap ACBP=A9
 0001:000172FC 000023FD C=CODE     S=.text    G=(none)   M=madTools ACBP=A9
 0001:000196FC 00000BC9 C=CODE     S=.text    G=(none)   M=madCrypt ACBP=A9
 0001:0001A2C8 00007120 C=CODE     S=.text    G=(none)   M=madDisAsm ACBP=A9
 0001:000213E8 00005B21 C=CODE     S=.text    G=(none)   M=madMapFile ACBP=A9
 0001:00026F0C 00007064 C=CODE     S=.text    G=(none)   M=madNVAssistant ACBP=A9
 0001:0002DF70 00004CC8 C=CODE     S=.text    G=(none)   M=madStackTrace ACBP=A9
 0001:00032C38 00000076 C=CODE     S=.text    G=(none)   M=WinSock  ACBP=A9
 0001:00032CB0 00000330 C=CODE     S=.text    G=(none)   M=SysConst ACBP=A9
 0001:00032FE0 00000016 C=CODE     S=.text    G=(none)   M=ShellAPI ACBP=A9
 0001:00032FF8 00000016 C=CODE     S=.text    G=(none)   M=CommCtrl ACBP=A9
 0001:00033010 0000000E C=CODE     S=.text    G=(none)   M=CommDlg  ACBP=A9
 0001:00033020 00030B9D C=CODE     S=.text    G=(none)   M=madExcept ACBP=A9
 0001:00063BC0 00000007 C=CODE     S=.text    G=(none)   M=madLinkDisAsm ACBP=A9
 0001:00063BC8 00000EEC C=CODE     S=.text    G=(none)   M=madListHardware ACBP=A9
 0001:00064AB4 00000E2C C=CODE     S=.text    G=(none)   M=madListProcesses ACBP=A9
 0001:000658E0 00000518 C=CODE     S=.text    G=(none)   M=madListModules ACBP=A9
 0001:00065DF8 000000F0 C=CODE     S=.text    G=(none)   M=RTLConsts ACBP=A9
 0001:00065EE8 000001D0 C=CODE     S=.text    G=(none)   M=Character ACBP=A9
 0001:000660B8 00000131 C=CODE     S=.text    G=(none)   M=StrUtils ACBP=A9
 0001:000661EC 0000C153 C=CODE     S=.text    G=(none)   M=SysUtils ACBP=A9
 0001:00072340 000007D3 C=CODE     S=.text    G=(none)   M=VarUtils ACBP=A9
 0001:00072B14 0000818C C=CODE     S=.text    G=(none)   M=Variants ACBP=A9
 0001:0007ACA0 0000180B C=CODE     S=.text    G=(none)   M=TypInfo  ACBP=A9
 0001:0007C4AC 00015350 C=CODE     S=.text    G=(none)   M=Classes  ACBP=A9
 0001:000917FC 00000206 C=CODE     S=.text    G=(none)   M=CodeHookIntf ACBP=A9
 0001:00091A04 00003D3C C=CODE     S=.text    G=(none)   M=CodeHookTest ACBP=A9
 0002:00000000 000000AA C=ICODE    S=.itext   G=(none)   M=System   ACBP=A9
 0002:000000AC 00000016 C=ICODE    S=.itext   G=(none)   M=Windows  ACBP=A9
 0002:000000C4 00000008 C=ICODE    S=.itext   G=(none)   M=madStrings ACBP=A9
 0002:000000CC 0000002F C=ICODE    S=.itext   G=(none)   M=madTools ACBP=A9
 0002:000000FC 00000008 C=ICODE    S=.itext   G=(none)   M=madDisAsm ACBP=A9
 0002:00000104 00000047 C=ICODE    S=.itext   G=(none)   M=madMapFile ACBP=A9
 0002:0000014C 00000008 C=ICODE    S=.itext   G=(none)   M=madStackTrace ACBP=A9
 0002:00000154 0000004D C=ICODE    S=.itext   G=(none)   M=madExcept ACBP=A9
 0002:000001A4 00000017 C=ICODE    S=.itext   G=(none)   M=madLinkDisAsm ACBP=A9
 0002:000001BC 00000060 C=ICODE    S=.itext   G=(none)   M=madListHardware ACBP=A9
 0002:0000021C 00000060 C=ICODE    S=.itext   G=(none)   M=madListProcesses ACBP=A9
 0002:0000027C 00000058 C=ICODE    S=.itext   G=(none)   M=madListModules ACBP=A9
 0002:000002D4 000000B4 C=ICODE    S=.itext   G=(none)   M=SysUtils ACBP=A9
 0002:00000388 0000000F C=ICODE    S=.itext   G=(none)   M=VarUtils ACBP=A9
 0002:00000398 000000AA C=ICODE    S=.itext   G=(none)   M=Variants ACBP=A9
 0002:00000444 00000008 C=ICODE    S=.itext   G=(none)   M=TypInfo  ACBP=A9
 0002:0000044C 0000008D C=ICODE    S=.itext   G=(none)   M=Classes  ACBP=A9
 0002:000004DC 000000A4 C=ICODE    S=.itext   G=(none)   M=CodeHookTest ACBP=A9
 0003:00000000 000009E0 C=DATA     S=.data    G=DGROUP   M=System   ACBP=A9
 0003:000009E0 00000024 C=DATA     S=.data    G=DGROUP   M=SysInit  ACBP=A9
 0003:00000A04 0000000C C=DATA     S=.data    G=DGROUP   M=Windows  ACBP=A9
 0003:00000A10 00000214 C=DATA     S=.data    G=DGROUP   M=madStrings ACBP=A9
 0003:00000C24 000010C4 C=DATA     S=.data    G=DGROUP   M=madZip   ACBP=A9
 0003:00001CE8 00000064 C=DATA     S=.data    G=DGROUP   M=madTools ACBP=A9
 0003:00001D4C 00001088 C=DATA     S=.data    G=DGROUP   M=madCrypt ACBP=A9
 0003:00002DD4 00000818 C=DATA     S=.data    G=DGROUP   M=madDisAsm ACBP=A9
 0003:000035EC 00000004 C=DATA     S=.data    G=DGROUP   M=madMapFile ACBP=A9
 0003:000035F0 0000000C C=DATA     S=.data    G=DGROUP   M=madNVAssistant ACBP=A9
 0003:000035FC 00000004 C=DATA     S=.data    G=DGROUP   M=madStackTrace ACBP=A9
 0003:00003600 00000944 C=DATA     S=.data    G=DGROUP   M=madExcept ACBP=A9
 0003:00003F44 00000018 C=DATA     S=.data    G=DGROUP   M=madListProcesses ACBP=A9
 0003:00003F5C 00000100 C=DATA     S=.data    G=DGROUP   M=Character ACBP=A9
 0003:0000405C 000002DC C=DATA     S=.data    G=DGROUP   M=SysUtils ACBP=A9
 0003:00004338 00000008 C=DATA     S=.data    G=DGROUP   M=VarUtils ACBP=A9
 0003:00004340 00000152 C=DATA     S=.data    G=DGROUP   M=Variants ACBP=A9
 0003:00004494 0000000C C=DATA     S=.data    G=DGROUP   M=TypInfo  ACBP=A9
 0003:000044A0 00000030 C=DATA     S=.data    G=DGROUP   M=Classes  ACBP=A9
 0003:000044D0 00000008 C=DATA     S=.data    G=DGROUP   M=CodeHookIntf ACBP=A9
 0004:00000000 00002C34 C=BSS      S=.bss     G=DGROUP   M=System   ACBP=A9
 0004:00002C34 0000000C C=BSS      S=.bss     G=DGROUP   M=SysInit  ACBP=A9
 0004:00002C40 00000008 C=BSS      S=.bss     G=DGROUP   M=Windows  ACBP=A9
 0004:00002C48 00000004 C=BSS      S=.bss     G=DGROUP   M=madStrings ACBP=A9
 0004:00002C4C 00001110 C=BSS      S=.bss     G=DGROUP   M=madZip   ACBP=A9
 0004:00003D5C 00000028 C=BSS      S=.bss     G=DGROUP   M=madTools ACBP=A9
 0004:00003D84 00000004 C=BSS      S=.bss     G=DGROUP   M=madDisAsm ACBP=A9
 0004:00003D88 00000008 C=BSS      S=.bss     G=DGROUP   M=madMapFile ACBP=A9
 0004:00003D90 00000014 C=BSS      S=.bss     G=DGROUP   M=madStackTrace ACBP=A9
 0004:00003DA4 00000064 C=BSS      S=.bss     G=DGROUP   M=madExcept ACBP=A9
 0004:00003E08 00000004 C=BSS      S=.bss     G=DGROUP   M=madLinkDisAsm ACBP=A9
 0004:00003E0C 00000004 C=BSS      S=.bss     G=DGROUP   M=madListHardware ACBP=A9
 0004:00003E10 00000004 C=BSS      S=.bss     G=DGROUP   M=madListProcesses ACBP=A9
 0004:00003E14 00000004 C=BSS      S=.bss     G=DGROUP   M=madListModules ACBP=A9
 0004:00003E18 0000001C C=BSS      S=.bss     G=DGROUP   M=Character ACBP=A9
 0004:00003E34 00002240 C=BSS      S=.bss     G=DGROUP   M=SysUtils ACBP=A9
 0004:00006074 0000005C C=BSS      S=.bss     G=DGROUP   M=VarUtils ACBP=A9
 0004:000060D0 00000040 C=BSS      S=.bss     G=DGROUP   M=Variants ACBP=A9
 0004:00006110 00000004 C=BSS      S=.bss     G=DGROUP   M=TypInfo  ACBP=A9
 0004:00006114 00000024 C=BSS      S=.bss     G=DGROUP   M=Classes  ACBP=A9
 0004:00006138 00000004 C=BSS      S=.bss     G=DGROUP   M=CodeHookIntf ACBP=A9
 0004:0000613C 0000000C C=BSS      S=.bss     G=DGROUP   M=CodeHookTest ACBP=A9
 0005:00000000 00000008 C=TLS      S=.tls     G=(none)   M=System   ACBP=A9
 0005:00000008 000000DC C=TLS      S=.tls     G=(none)   M=madExcept ACBP=A9
 0005:000000E4 00000008 C=TLS      S=.tls     G=(none)   M=Classes  ACBP=A9


  Address             Publics by Name

 0004:00003E24       Character.CategoryTable
 0004:00003E1C       Character.CatIndexPrimary
 0004:00003E20       Character.CatIndexSecondary
 0004:00003E18       Character.DataTable
 0003:00003F5C       Character.Latin1Categories
 0004:00003E30       Character.NumericValueTable
 0004:00003E28       Character.NumIndexPrimary
 0004:00003E2C       Character.NumIndexSecondary
 0001:00065EE8       Character.TCharacter.CheckLetter
 0001:00065EF4       Character.TCharacter.CheckLetterOrDigit
 0001:00066010       Character.TCharacter.Initialize
 0001:00066004       Character.TCharacter.IsAscii
 0001:00065F04       Character.TCharacter.IsLatin1
 0001:00065F10       Character.TCharacter.IsLetter
 0001:00065F9C       Character.TCharacter.IsLetterOrDigit
 0004:0000611C       Classes..66
 0001:0007C9C4       Classes..EClassNotFound
 0001:0007CC34       Classes..EComponentError
 0001:0007C6CC       Classes..EFCreateError
 0001:0007C800       Classes..EFilerError
 0001:0007C5D0       Classes..EFileStreamError
 0001:0007C768       Classes..EFOpenError
 0001:0007CA60       Classes..EInvalidImage
 0001:0007CAFC       Classes..EListError
 0001:0007C898       Classes..EReadError
 0001:0007C534       Classes..EStreamError
 0001:0007CB90       Classes..EStringListError
 0001:0007C92C       Classes..EWriteError
 0001:00083E74       Classes..TBasicAction
 0001:00083C58       Classes..TBasicActionLink
 0001:00080838       Classes..TClassFinder
 0001:0007DF60       Classes..TCollection
 0001:0007DDBC       Classes..TCollectionEnumerator
 0001:0007DB50       Classes..TCollectionItem
 0001:00083310       Classes..TComponent
 0001:00090B08       Classes..TComponent.FindComponent$ActRec
 0001:00082F38       Classes..TComponentEnumerator
 0001:0008035C       Classes..TCustomMemoryStream
 0001:00080C0C       Classes..TFiler
 0001:00080178       Classes..TFileStream
 0001:0007FF60       Classes..THandleStream
 0001:0007D00C       Classes..TList
 0001:000863B4       Classes..TList.Sort$ActRec
 0001:0007CE38       Classes..TListEnumerator
 0001:000805A4       Classes..TMemoryStream
 0001:0007D9D8       Classes..TPersistent
 0001:0008A268       Classes..TPropFixup
 0001:0008A494       Classes..TPropIntfFixup
 0001:00081624       Classes..TReader
 0001:00084280       Classes..TRegGroup
 0001:000846E0       Classes..TRegGroups
 0001:0007F954       Classes..TStream
 0001:0007F2D8       Classes..TStringList
 0001:0007E660       Classes..TStrings
 0001:0007E4B8       Classes..TStringsEnumerator
 0001:0007D720       Classes..TThreadList
 0001:0008252C       Classes..TWriter
 0001:0008A7C0       Classes.AddFinished
 0001:0008A7F8       Classes.AddNotFinished
 0001:0008B464       Classes.AddSubComponentsToLoaded
 0001:0008EA00       Classes.AncestorIsValid
 0001:0008B4A0       Classes.CheckSubComponents
 0002:0000044C       Classes.Classes
 0001:0008586C       Classes.ClassNotFound
 0001:000915AC       Classes.CleanupInstFreeList
 0001:00085B94       Classes.CollectionsEqual
 0001:0008B580       Classes.ComponentCreated
 0001:0008D4A0       Classes.CopyBinary
 0001:0008D410       Classes.CopyBytes
 0001:0008D3C4       Classes.CopyList
 0001:0008D33C       Classes.CopySetBody
 0001:0008B600       Classes.CreateComponent
 0003:000044A0       Classes.CreateVCLComObjectProc
 0001:000877A4       Classes.DoWrite
 0003:000044A8       Classes.Dummy32bitResHeader
 0001:0009167C       Classes.EFileStreamError.Create
 0001:00085310       Classes.Error
 0003:000044A4       Classes.FilerSignature
 0001:0009172C       Classes.Finalization
 0001:0008E0F0       Classes.FindAncestor
 0001:00085944       Classes.FindClass
 0001:0008B7B0       Classes.FindExistingComponent
 0001:00085AC4       Classes.FindGlobalComponent
 0004:00006128       Classes.FindGlobalComponentProcs
 0001:00085A48       Classes.FindIdentToInt
 0001:000859CC       Classes.FindIntToIdent
 0001:0008EE74       Classes.FindMethodName
 0001:0008A6C8       Classes.FindNestedComponent
 0001:0008C82C       Classes.FindUniqueName
 0001:0009152C       Classes.FreeIntConstList
 0001:000858D8       Classes.GetClass
 0001:0008F568       Classes.GetComponentValue
 0001:00086C00       Classes.GetDesigner
 0001:00085860       Classes.GetFieldClassTable
 0001:000915E8       Classes.GetFreeInstBlockItemCount
 0004:0000612C       Classes.GlobalFixupList
 0001:0008A840       Classes.GlobalFixupReferences
 0005:000000E8       Classes.GlobalLists
 0005:000000E4       Classes.GlobalLoaded
 0004:00006114       Classes.GlobalNameSpace
 0001:0008BFC0       Classes.HandleException
 0004:00006130       Classes.InstBlockList
 0004:00006134       Classes.InstFreeList
 0004:00006120       Classes.IntConstList
 0001:0008EBF4       Classes.IsDefault
 0001:0008EA70       Classes.IsDefaultFloatProp
 0001:0008EACC       Classes.IsDefaultInt64Prop
 0001:0008ED98       Classes.IsDefaultInterfaceProp
 0001:0008EECC       Classes.IsDefaultMethodProp
 0001:0008EC4C       Classes.IsDefaultObjectProp
 0001:0008EA18       Classes.IsDefaultOrdProp
 0001:0008F004       Classes.IsDefaultPropertyValue
 0001:0008EB24       Classes.IsDefaultStrProp
 0001:0008ECCC       Classes.IsDefaultValue
 0001:0008EF6C       Classes.IsDefaultVariantProp
 0001:00085B04       Classes.IsUniqueGlobalComponentName
 0004:00006118       Classes.IsUniqueGlobalComponentNameProc
 0001:000915A4       Classes.ModuleUnload
 0003:000044C8       Classes.NilMethod
 0001:00086CA4       Classes.NotifyDesigner
 0001:0008EBB4       Classes.ObjectAncestorMatch
 0001:0008F550       Classes.OwnedBy
 0001:0008AB80       Classes.PropertyNotFound
 0001:0008C090       Classes.PropPathError
 0001:0008AB74       Classes.PropValueError
 0001:0008627C       Classes.QuickSort
 0001:00089458       Classes.RaiseException
 0001:0008D988       Classes.ReadCustomVariant
 0001:0008AB5C       Classes.ReadError
 0001:0008B5A0       Classes.Recover
 0004:00006124       Classes.RegGroups
 0001:00091618       Classes.ReleaseObjectInstanceBlocks
 0001:0008AA14       Classes.RemoveFixupReferences
 0001:0008AAC8       Classes.RemoveFixups
 0001:0008AEC4       Classes.RemoveGlobalFixup
 0001:00087910       Classes.ReturnAddr
 0001:00085DF8       Classes.ReturnAddr
 0001:0008B710       Classes.SetCompName
 0001:0008ABAC       Classes.SetElementValue
 0001:0008C408       Classes.SetInterfaceReference
 0001:0008C324       Classes.SetIntIdent
 0001:0008C36C       Classes.SetObjectIdent
 0001:0008B518       Classes.SetSubComponentState
 0001:0008C3AC       Classes.SetVariantReference
 0001:0008D0F8       Classes.SkipBinary
 0001:0008D128       Classes.SkipCollection
 0001:0008D0CC       Classes.SkipList
 0001:00089244       Classes.StringListCompareStrings
 0001:000914A0       Classes.TBasicAction.Change
 0001:0009132C       Classes.TBasicAction.Create
 0001:00091370       Classes.TBasicAction.Destroy
 0001:0009140C       Classes.TBasicAction.Execute
 0001:000913DC       Classes.TBasicAction.ExecuteTarget
 0001:000913D8       Classes.TBasicAction.HandlesTarget
 0001:000913E0       Classes.TBasicAction.Notification
 0001:000914B4       Classes.TBasicAction.RegisterChanges
 0001:00091500       Classes.TBasicAction.SetActionComponent
 0001:00091444       Classes.TBasicAction.SetOnExecute
 0001:000914C0       Classes.TBasicAction.UnRegisterChanges
 0001:00091428       Classes.TBasicAction.Update
 0001:00091408       Classes.TBasicAction.UpdateTarget
 0001:0009127C       Classes.TBasicActionLink.AssignClient
 0001:000912B4       Classes.TBasicActionLink.Change
 0001:00091238       Classes.TBasicActionLink.Create
 0001:00091280       Classes.TBasicActionLink.Destroy
 0001:000912CC       Classes.TBasicActionLink.Execute
 0001:00091314       Classes.TBasicActionLink.IsOnExecuteLinked
 0001:000912E8       Classes.TBasicActionLink.SetAction
 0001:00091318       Classes.TBasicActionLink.SetOnExecute
 0001:00091320       Classes.TBasicActionLink.Update
 0001:000855CC       Classes.TClassFinder.Create
 0001:0008570C       Classes.TClassFinder.Destroy
 0001:0008573C       Classes.TClassFinder.GetClass
 0001:000857D8       Classes.TClassFinder.GetClasses
 0001:00086FD4       Classes.TCollection.Add
 0001:000874F0       Classes.TCollection.Added
 0001:00086FF4       Classes.TCollection.Assign
 0001:0008709C       Classes.TCollection.BeginUpdate
 0001:000870A0       Classes.TCollection.Changed
 0001:000870B0       Classes.TCollection.Clear
 0001:00086F3C       Classes.TCollection.Create
 0001:000874B4       Classes.TCollection.Delete
 0001:000874F4       Classes.TCollection.Deleting
 0001:00086F88       Classes.TCollection.Destroy
 0001:00087118       Classes.TCollection.EndUpdate
 0001:00087124       Classes.TCollection.FindItemID
 0001:00087158       Classes.TCollection.GetAttr
 0001:00087154       Classes.TCollection.GetAttrCount
 0001:00087178       Classes.TCollection.GetCapacity
 0001:000871A0       Classes.TCollection.GetCount
 0001:00087168       Classes.TCollection.GetEnumerator
 0001:000871A8       Classes.TCollection.GetItem
 0001:00087180       Classes.TCollection.GetItemAttr
 0001:000871BC       Classes.TCollection.GetNamePath
 0001:00087270       Classes.TCollection.GetPropName
 0001:000873C4       Classes.TCollection.Insert
 0001:000873E0       Classes.TCollection.InsertItem
 0001:000874F8       Classes.TCollection.Notify
 0001:000874E4       Classes.TCollection.Owner
 0001:00087448       Classes.TCollection.RemoveItem
 0001:0008749C       Classes.TCollection.SetCapacity
 0001:000874AC       Classes.TCollection.SetItemName
 0001:000874B0       Classes.TCollection.Update
 0001:00086ED0       Classes.TCollectionEnumerator.Create
 0001:00086F14       Classes.TCollectionEnumerator.GetCurrent
 0001:00086F20       Classes.TCollectionEnumerator.MoveNext
 0001:00086D70       Classes.TCollectionItem.Changed
 0001:00086D08       Classes.TCollectionItem.Create
 0001:00086D40       Classes.TCollectionItem.Destroy
 0001:00086DAC       Classes.TCollectionItem.GetDisplayName
 0001:00086D94       Classes.TCollectionItem.GetIndex
 0001:00086DC0       Classes.TCollectionItem.GetNamePath
 0001:00086E6C       Classes.TCollectionItem.GetOwner
 0001:00086E70       Classes.TCollectionItem.SetCollection
 0001:00086E98       Classes.TCollectionItem.SetDisplayName
 0001:00086EA0       Classes.TCollectionItem.SetIndex
 0001:00090D30       Classes.TComponent.AddSortedComponent
 0001:0009054C       Classes.TComponent.BeforeDestruction
 0001:00090DE4       Classes.TComponent.ChangeName
 0001:000904B8       Classes.TComponent.Create
 0001:000908F8       Classes.TComponent.DefineProperties
 0001:00090504       Classes.TComponent.Destroy
 0001:0009077C       Classes.TComponent.DestroyComponents
 0001:000907E8       Classes.TComponent.Destroying
 0001:00090F40       Classes.TComponent.ExecuteAction
 0001:00090BCC       Classes.TComponent.FindComponent
 0001:00090BC0       Classes.TComponent.FindComponent$ActRec.$0$Body
 0001:00090CB8       Classes.TComponent.FindSortedComponent
 0001:00090598       Classes.TComponent.FreeNotification
 0001:00091074       Classes.TComponent.FreeOnRelease
 0001:0009099C       Classes.TComponent.GetChildOwner
 0001:000909A0       Classes.TComponent.GetChildParent
 0001:00090994       Classes.TComponent.GetChildren
 0001:00090FA4       Classes.TComponent.GetComObject
 0001:00090E38       Classes.TComponent.GetComponent
 0001:00090E64       Classes.TComponent.GetComponentCount
 0001:00090E1C       Classes.TComponent.GetComponentIndex
 0001:000909A4       Classes.TComponent.GetEnumerator
 0001:000909B4       Classes.TComponent.GetNamePath
 0001:000909C8       Classes.TComponent.GetOwner
 0001:000909D0       Classes.TComponent.GetParentComponent
 0001:00090990       Classes.TComponent.HasParent
 0001:0009062C       Classes.TComponent.Insert
 0001:000906E0       Classes.TComponent.InsertComponent
 0001:0009110C       Classes.TComponent.IntfGetComponent
 0001:00091110       Classes.TComponent.IsImplementorOf
 0001:000909F0       Classes.TComponent.Loaded
 0001:00090898       Classes.TComponent.Notification
 0001:000909FC       Classes.TComponent.PaletteCreated
 0001:0009108C       Classes.TComponent.QueryInterface
 0001:000905EC       Classes.TComponent.ReadLeft
 0001:00090A00       Classes.TComponent.ReadState
 0001:00090600       Classes.TComponent.ReadTop
 0001:00091190       Classes.TComponent.ReferenceInterface
 0001:00090668       Classes.TComponent.Remove
 0001:00090744       Classes.TComponent.RemoveComponent
 0001:0009087C       Classes.TComponent.RemoveFreeNotification
 0001:00090558       Classes.TComponent.RemoveFreeNotifications
 0001:00090824       Classes.TComponent.RemoveNotification
 0001:0009105C       Classes.TComponent.SafeCallException
 0001:000909CC       Classes.TComponent.SetChildOrder
 0001:00090E74       Classes.TComponent.SetComponentIndex
 0001:00090EC8       Classes.TComponent.SetDesigning
 0001:00090D54       Classes.TComponent.SetName
 0001:000909D4       Classes.TComponent.SetParentComponent
 0001:00090F18       Classes.TComponent.SetReference
 0001:00090F90       Classes.TComponent.SetSubComponent
 0001:00090F68       Classes.TComponent.UpdateAction
 0001:000909E4       Classes.TComponent.Updated
 0001:00091084       Classes.TComponent.UpdateRegistry
 0001:000909D8       Classes.TComponent.Updating
 0001:00090A98       Classes.TComponent.ValidateContainer
 0001:00090AAC       Classes.TComponent.ValidateInsert
 0001:00090A10       Classes.TComponent.ValidateRename
 0001:00090614       Classes.TComponent.WriteLeft
 0001:00090A08       Classes.TComponent.WriteState
 0001:00090620       Classes.TComponent.WriteTop
 0001:000910CC       Classes.TComponent._AddRef
 0001:000910EC       Classes.TComponent._Release
 0001:0009044C       Classes.TComponentEnumerator.Create
 0001:00090490       Classes.TComponentEnumerator.GetCurrent
 0001:0009049C       Classes.TComponentEnumerator.MoveNext
 0001:00089F34       Classes.TCustomMemoryStream.Read
 0001:00089FA8       Classes.TCustomMemoryStream.SaveToFile
 0001:00089F90       Classes.TCustomMemoryStream.SaveToStream
 0001:00089F6C       Classes.TCustomMemoryStream.Seek
 0001:00089F2C       Classes.TCustomMemoryStream.SetPointer
 0001:0008A1F4       Classes.TFiler.Create
 0001:00080FC4       Classes.TFiler.DefineBinaryProperty
 0001:00080FBC       Classes.TFiler.DefineProperty
 0001:0008A23C       Classes.TFiler.Destroy
 0001:00080FCC       Classes.TFiler.FlushBuffer
 0001:0008A264       Classes.TFiler.SetRoot
 0001:00089D84       Classes.TFileStream.Create
 0001:00089D40       Classes.TFileStream.Create
 0001:00089EF8       Classes.TFileStream.Destroy
 0001:00089C7C       Classes.THandleStream.Create
 0001:00089CB8       Classes.THandleStream.Read
 0001:00089CD8       Classes.THandleStream.Seek
 0001:00089D04       Classes.THandleStream.SetSize
 0001:00089D18       Classes.THandleStream.SetSize
 0001:00089CC8       Classes.THandleStream.Write
 0001:00085D38       Classes.TList.Add
 0001:00086574       Classes.TList.Assign
 0001:00085D78       Classes.TList.Clear
 0001:00085D90       Classes.TList.Delete
 0001:00085D18       Classes.TList.Destroy
 0001:00085E34       Classes.TList.Error
 0001:00085DFC       Classes.TList.Error
 0001:00085E88       Classes.TList.Exchange
 0001:00085ED8       Classes.TList.Expand
 0001:00086518       Classes.TList.Extract
 0001:00086520       Classes.TList.ExtractItem
 0001:00085EF0       Classes.TList.First
 0001:00085EF8       Classes.TList.Get
 0001:00085F1C       Classes.TList.GetEnumerator
 0001:00085F2C       Classes.TList.Grow
 0001:00085F60       Classes.TList.IndexOf
 0001:00085F84       Classes.TList.IndexOfItem
 0001:00085FB0       Classes.TList.Insert
 0001:00086028       Classes.TList.Last
 0001:0008604C       Classes.TList.Move
 0001:00086570       Classes.TList.Notify
 0001:00086128       Classes.TList.Pack
 0001:000860A4       Classes.TList.Put
 0001:00086100       Classes.TList.Remove
 0001:00086108       Classes.TList.RemoveItem
 0001:0008619C       Classes.TList.SetCapacity
 0001:000861D8       Classes.TList.SetCount
 0001:00086478       Classes.TList.Sort
 0001:0008646C       Classes.TList.Sort$ActRec.$0$Body
 0001:000864F8       Classes.TList.SortList
 0001:00085CB0       Classes.TListEnumerator.Create
 0001:00085CF4       Classes.TListEnumerator.GetCurrent
 0001:00085D00       Classes.TListEnumerator.MoveNext
 0001:0008A02C       Classes.TMemoryStream.Clear
 0001:0008A000       Classes.TMemoryStream.Destroy
 0001:0008A07C       Classes.TMemoryStream.LoadFromFile
 0001:0008A044       Classes.TMemoryStream.LoadFromStream
 0001:0008A124       Classes.TMemoryStream.Realloc
 0001:0008A0D0       Classes.TMemoryStream.SetCapacity
 0001:0008A0F8       Classes.TMemoryStream.SetSize
 0001:0008A1A4       Classes.TMemoryStream.Write
 0001:00086A88       Classes.TPersistent.Assign
 0001:00086A9C       Classes.TPersistent.AssignError
 0001:00086B58       Classes.TPersistent.AssignTo
 0001:00086B60       Classes.TPersistent.DefineProperties
 0001:00086A5C       Classes.TPersistent.Destroy
 0001:00086B64       Classes.TPersistent.GetNamePath
 0001:00086BFC       Classes.TPersistent.GetOwner
 0001:0008A57C       Classes.TPropFixup.Create
 0001:0008A5D4       Classes.TPropFixup.MakeGlobalReference
 0001:0008A634       Classes.TPropFixup.ResolveReference
 0001:0008A644       Classes.TPropIntfFixup.ResolveReference
 0001:0008AC00       Classes.TReader.BeginReferences
 0001:0008AC68       Classes.TReader.CheckValue
 0001:0008D4F8       Classes.TReader.CopyValue
 0001:0008ACC8       Classes.TReader.DefineBinaryProperty
 0001:0008AC8C       Classes.TReader.DefineProperty
 0001:0008ABC4       Classes.TReader.Destroy
 0001:0008AF4C       Classes.TReader.DoFixupReferences
 0001:0008ADB0       Classes.TReader.EndOfList
 0001:0008ADC4       Classes.TReader.EndReferences
 0001:0008ADE0       Classes.TReader.Error
 0001:0008D7D4       Classes.TReader.FindAncestorComponent
 0001:0008D8CC       Classes.TReader.FindComponentClass
 0001:0008AE74       Classes.TReader.FindMethod
 0001:0008AE04       Classes.TReader.FindMethodInstance
 0001:0008B090       Classes.TReader.FixupReferences
 0001:0008B0C8       Classes.TReader.FlushBuffer
 0001:0008B0EC       Classes.TReader.FreeFixups
 0001:0008B128       Classes.TReader.GetFieldClass
 0001:0008B1BC       Classes.TReader.GetPosition
 0001:0008B1D4       Classes.TReader.NextValue
 0001:0008B1E4       Classes.TReader.PropertyError
 0001:0008B1F8       Classes.TReader.Read
 0001:0008B280       Classes.TReader.ReadBoolean
 0001:0008B244       Classes.TReader.ReadBuffer
 0001:0008B294       Classes.TReader.ReadChar
 0001:0008B388       Classes.TReader.ReadCollection
 0001:0008B854       Classes.TReader.ReadComponent
 0001:0008CBC8       Classes.TReader.ReadComponents
 0001:0008BC94       Classes.TReader.ReadCurrency
 0001:0008BA94       Classes.TReader.ReadData
 0001:0008BB04       Classes.TReader.ReadDataInner
 0001:0008BCE4       Classes.TReader.ReadDate
 0001:0008BC0C       Classes.TReader.ReadDouble
 0001:0008BBD4       Classes.TReader.ReadFloat
 0001:0008BD28       Classes.TReader.ReadIdent
 0001:0008BF2C       Classes.TReader.ReadInt64
 0001:0008BEC0       Classes.TReader.ReadInteger
 0001:0008BF70       Classes.TReader.ReadListBegin
 0001:0008BF78       Classes.TReader.ReadListEnd
 0001:0008BF80       Classes.TReader.ReadPrefix
 0001:0008C0AC       Classes.TReader.ReadProperty
 0001:0008C4C8       Classes.TReader.ReadPropValue
 0001:0008C894       Classes.TReader.ReadRootComponent
 0001:0008CCB8       Classes.TReader.ReadSet
 0001:0008CD74       Classes.TReader.ReadSignature
 0001:0008BC50       Classes.TReader.ReadSingle
 0001:0008CD98       Classes.TReader.ReadStr
 0001:0008CE28       Classes.TReader.ReadString
 0001:0008D050       Classes.TReader.ReadValue
 0001:0008DB50       Classes.TReader.ReadVariant
 0001:0008B328       Classes.TReader.ReadWideChar
 0001:0008CF10       Classes.TReader.ReadWideString
 0001:0008D88C       Classes.TReader.ReferenceName
 0001:0008D8A4       Classes.TReader.SetName
 0001:0008D064       Classes.TReader.SetPosition
 0001:0008D940       Classes.TReader.SkipBytes
 0001:0008D728       Classes.TReader.SkipComponent
 0001:0008D6E0       Classes.TReader.SkipProperty
 0001:0008D084       Classes.TReader.SkipSetBody
 0001:0008D18C       Classes.TReader.SkipValue
 0001:00084BBC       Classes.TRegGroup.AddClass
 0001:00084BC8       Classes.TRegGroup.BestClass
 0001:00084C28       Classes.TRegGroup.BestGroup
 0001:00084C98       Classes.TRegGroup.Create
 0001:00084CF4       Classes.TRegGroup.Destroy
 0001:00084D34       Classes.TRegGroup.GetClass
 0001:00084D84       Classes.TRegGroup.GetClasses
 0001:00084DCC       Classes.TRegGroup.IndexOfClass
 0001:00084E44       Classes.TRegGroup.InGroup
 0001:00084E88       Classes.TRegGroup.RegisterClass
 0001:00084F38       Classes.TRegGroup.RegisterClassAlias
 0001:00084F70       Classes.TRegGroup.Registered
 0001:00084F88       Classes.TRegGroup.UnregisterClass
 0001:00084FE8       Classes.TRegGroup.UnregisterModuleClasses
 0001:00085128       Classes.TRegGroups.Activate
 0001:00085174       Classes.TRegGroups.AddClass
 0001:00085194       Classes.TRegGroups.Create
 0001:00085208       Classes.TRegGroups.Destroy
 0001:00085268       Classes.TRegGroups.FindGroup
 0001:000852AC       Classes.TRegGroups.GetClass
 0001:000852F0       Classes.TRegGroups.GroupedWith
 0001:00085394       Classes.TRegGroups.GroupWith
 0001:00085468       Classes.TRegGroups.Lock
 0001:00085474       Classes.TRegGroups.RegisterClass
 0001:0008548C       Classes.TRegGroups.RegisterClassAlias
 0001:000854AC       Classes.TRegGroups.Registered
 0001:000854F0       Classes.TRegGroups.StartGroup
 0001:00085540       Classes.TRegGroups.Unlock
 0001:0008554C       Classes.TRegGroups.UnregisterClass
 0001:0008557C       Classes.TRegGroups.UnregisterModuleClasses
 0001:00089630       Classes.TStream.CopyFrom
 0001:00089A98       Classes.TStream.FixupResourceHeader
 0001:0008936C       Classes.TStream.GetPosition
 0001:000893A0       Classes.TStream.GetSize
 0001:0007FF50       Classes.TStream.Read
 0001:000895C0       Classes.TStream.ReadBuffer
 0001:00089724       Classes.TStream.ReadComponent
 0001:000897E8       Classes.TStream.ReadComponentRes
 0001:00089B90       Classes.TStream.ReadResHeader
 0001:00089550       Classes.TStream.Seek
 0001:000894CC       Classes.TStream.Seek
 0001:0008938C       Classes.TStream.SetPosition
 0001:00089404       Classes.TStream.SetSize
 0001:000893EC       Classes.TStream.SetSize
 0001:000893F0       Classes.TStream.SetSize64
 0001:0007FF58       Classes.TStream.Write
 0001:000895F8       Classes.TStream.WriteBuffer
 0001:00089784       Classes.TStream.WriteComponent
 0001:00089804       Classes.TStream.WriteComponentRes
 0001:0008978C       Classes.TStream.WriteDescendent
 0001:00089B5C       Classes.TStream.WriteDescendentRes
 0001:0008980C       Classes.TStream.WriteResourceHeader
 0001:00088C54       Classes.TStringList.Add
 0001:00088C64       Classes.TStringList.AddObject
 0001:00088CC8       Classes.TStringList.Changed
 0001:00088CE4       Classes.TStringList.Changing
 0001:00088D00       Classes.TStringList.Clear
 0001:000892AC       Classes.TStringList.CompareStrings
 0001:000892C8       Classes.TStringList.Create
 0001:00089300       Classes.TStringList.Create
 0001:00089274       Classes.TStringList.CustomSort
 0001:00088D68       Classes.TStringList.Delete
 0001:00088BD0       Classes.TStringList.Destroy
 0001:00088DE8       Classes.TStringList.Exchange
 0001:00088E44       Classes.TStringList.ExchangeItems
 0001:00088E68       Classes.TStringList.Find
 0001:00088EEC       Classes.TStringList.Get
 0001:00088F1C       Classes.TStringList.GetCapacity
 0001:00088F20       Classes.TStringList.GetCount
 0001:00088F24       Classes.TStringList.GetObject
 0001:00088F48       Classes.TStringList.Grow
 0001:00088F7C       Classes.TStringList.IndexOf
 0001:00088FB8       Classes.TStringList.Insert
 0001:0008901C       Classes.TStringList.InsertItem
 0001:00088FC8       Classes.TStringList.InsertObject
 0001:00089098       Classes.TStringList.Put
 0001:000890F0       Classes.TStringList.PutObject
 0001:0008912C       Classes.TStringList.QuickSort
 0001:000891C4       Classes.TStringList.SetCapacity
 0001:00089344       Classes.TStringList.SetCaseSensitive
 0001:00089204       Classes.TStringList.SetSorted
 0001:00089224       Classes.TStringList.SetUpdateState
 0001:00089264       Classes.TStringList.Sort
 0001:000875C4       Classes.TStrings.Add
 0001:000875E8       Classes.TStrings.AddObject
 0001:00087618       Classes.TStrings.AddStrings
 0001:0008760C       Classes.TStrings.Append
 0001:000876D0       Classes.TStrings.Assign
 0001:0008778C       Classes.TStrings.BeginUpdate
 0001:0007F1D8       Classes.TStrings.Clear
 0001:00088B88       Classes.TStrings.CompareStrings
 0001:000877FC       Classes.TStrings.DefineProperties
 0001:0007F1E0       Classes.TStrings.Delete
 0001:00087594       Classes.TStrings.Destroy
 0001:00087854       Classes.TStrings.EndUpdate
 0001:00087868       Classes.TStrings.Equals
 0001:0008794C       Classes.TStrings.Error
 0001:00087914       Classes.TStrings.Error
 0001:000879A4       Classes.TStrings.Exchange
 0001:00087A90       Classes.TStrings.GetCapacity
 0001:00087A98       Classes.TStrings.GetCommaText
 0001:00087B30       Classes.TStrings.GetDelimitedText
 0001:00088A74       Classes.TStrings.GetDelimiter
 0001:00087DA0       Classes.TStrings.GetEnumerator
 0001:00088A90       Classes.TStrings.GetLineBreak
 0001:00088B94       Classes.TStrings.GetNameValueSeparator
 0001:00087DB0       Classes.TStrings.GetObject
 0001:00088ACC       Classes.TStrings.GetQuoteChar
 0001:00088AE8       Classes.TStrings.GetStrictDelimiter
 0001:00087DB4       Classes.TStrings.GetText
 0001:00087E08       Classes.TStrings.GetTextStr
 0001:00087FA0       Classes.TStrings.IndexOf
 0001:0008802C       Classes.TStrings.IndexOfName
 0001:00088100       Classes.TStrings.IndexOfObject
 0001:0007F1E8       Classes.TStrings.Insert
 0001:00088134       Classes.TStrings.InsertObject
 0001:000881B8       Classes.TStrings.LoadFromFile
 0001:00088164       Classes.TStrings.LoadFromFile
 0001:00088220       Classes.TStrings.LoadFromStream
 0001:00088214       Classes.TStrings.LoadFromStream
 0001:00088314       Classes.TStrings.Move
 0001:000883C4       Classes.TStrings.Put
 0001:000883F4       Classes.TStrings.PutObject
 0001:000883F8       Classes.TStrings.ReadData
 0001:000884B8       Classes.TStrings.SaveToFile
 0001:000884A8       Classes.TStrings.SaveToFile
 0001:00088518       Classes.TStrings.SaveToStream
 0001:00088528       Classes.TStrings.SaveToStream
 0001:000885E0       Classes.TStrings.SetCapacity
 0001:000885E4       Classes.TStrings.SetCommaText
 0001:000888C4       Classes.TStrings.SetDelimitedText
 0001:00088B00       Classes.TStrings.SetDelimiter
 0001:00088B20       Classes.TStrings.SetLineBreak
 0001:00088BB0       Classes.TStrings.SetNameValueSeparator
 0001:00088B4C       Classes.TStrings.SetQuoteChar
 0001:00088B6C       Classes.TStrings.SetStrictDelimiter
 0001:0008860C       Classes.TStrings.SetStringsAdapter
 0001:00088640       Classes.TStrings.SetText
 0001:00088690       Classes.TStrings.SetTextStr
 0001:0008883C       Classes.TStrings.SetUpdateState
 0001:00088840       Classes.TStrings.WriteData
 0001:0008751C       Classes.TStringsEnumerator.Create
 0001:00087560       Classes.TStringsEnumerator.GetCurrent
 0001:00087578       Classes.TStringsEnumerator.MoveNext
 0001:00086910       Classes.TThreadList.Add
 0001:00086998       Classes.TThreadList.Clear
 0001:00086840       Classes.TThreadList.Create
 0001:00086894       Classes.TThreadList.Destroy
 0001:000869E0       Classes.TThreadList.LockList
 0001:000869F4       Classes.TThreadList.Remove
 0001:000869FC       Classes.TThreadList.RemoveItem
 0001:00086A50       Classes.TThreadList.UnlockList
 0001:0008DD9C       Classes.TWriter.AddAncestor
 0001:0008DDD0       Classes.TWriter.DefineBinaryProperty
 0001:0008DDA8       Classes.TWriter.DefineProperty
 0001:0008DD70       Classes.TWriter.Destroy
 0001:0008DE0C       Classes.TWriter.FindMethodName
 0001:0008DE54       Classes.TWriter.FlushBuffer
 0001:00090428       Classes.TWriter.GetLookupInfo
 0001:0008DDFC       Classes.TWriter.GetPosition
 0001:0008DE5C       Classes.TWriter.SetPosition
 0001:0008DE98       Classes.TWriter.SetRoot
 0001:0008DEB0       Classes.TWriter.Write
 0001:0008DEFC       Classes.TWriter.WriteBinary
 0001:0008DF9C       Classes.TWriter.WriteBoolean
 0001:0008DF84       Classes.TWriter.WriteBuffer
 0001:0008DFB0       Classes.TWriter.WriteChar
 0001:0008E050       Classes.TWriter.WriteCollection
 0001:0008E140       Classes.TWriter.WriteComponent
 0001:0008E6E8       Classes.TWriter.WriteCurrency
 0001:0008E294       Classes.TWriter.WriteData
 0001:0008E70C       Classes.TWriter.WriteDate
 0001:0008E654       Classes.TWriter.WriteDescendent
 0001:0008E6C4       Classes.TWriter.WriteDouble
 0001:0008E67C       Classes.TWriter.WriteFloat
 0001:0008E730       Classes.TWriter.WriteIdent
 0001:0008E814       Classes.TWriter.WriteInteger
 0001:0008E888       Classes.TWriter.WriteInteger
 0001:0008E8E0       Classes.TWriter.WriteListBegin
 0001:0008E8E8       Classes.TWriter.WriteListEnd
 0001:000900EC       Classes.TWriter.WriteMinStr
 0001:0008E8F0       Classes.TWriter.WritePrefix
 0001:0008E938       Classes.TWriter.WriteProperties
 0001:0008FA90       Classes.TWriter.WriteProperty
 0001:0008FFC4       Classes.TWriter.WritePropName
 0001:00090018       Classes.TWriter.WriteRootComponent
 0001:00090020       Classes.TWriter.WriteSignature
 0001:0008E6A0       Classes.TWriter.WriteSingle
 0001:00090030       Classes.TWriter.WriteStr
 0001:00090220       Classes.TWriter.WriteString
 0001:00090338       Classes.TWriter.WriteUTF8Str
 0001:00090414       Classes.TWriter.WriteValue
 0001:0008FBE4       Classes.TWriter.WriteVariant
 0001:0008E000       Classes.TWriter.WriteWideChar
 0001:0009040C       Classes.TWriter.WriteWideString
 0001:00085964       Classes.UnRegisterModuleClasses
 0001:00085B28       Classes.WriteCollection
 0001:0008F2C0       Classes.WriteCollectionProp
 0001:0008F45C       Classes.WriteFloatProp
 0001:0008F49C       Classes.WriteInt64Prop
 0001:0008F8C0       Classes.WriteInterfaceProp
 0001:0008F254       Classes.WriteIntProp
 0001:0008F99C       Classes.WriteMethodProp
 0001:0008F6AC       Classes.WriteObjectProp
 0001:0008F364       Classes.WriteOrdProp
 0001:0008F168       Classes.WritePropPath
 0001:0008F1C0       Classes.WriteSet
 0001:0008F4D8       Classes.WriteStrProp
 0001:0008FA2C       Classes.WriteVariantProp
 0003:000044D4       CodeHookIntf.AddrGetCodeHook
 0004:00006138       CodeHookIntf.DllHandle
 0003:000044D0       CodeHookIntf.DllInited
 0001:000917FC       CodeHookIntf.Error
 0001:000919D8       CodeHookIntf.GetCodeHook
 0001:0009181C       CodeHookIntf.InitCodeHookDLL
 0001:00091AE8       CodeHookTest..TObjHook
 0001:00091A04       CodeHookTest..TObjTarget
 0002:000004DC       CodeHookTest.CodeHookTest
 0001:00091C00       CodeHookTest.DoTest
 0004:00006144       CodeHookTest.E
 0001:00091F28       CodeHookTest.Finalization
 0004:0000613C       CodeHookTest.GCodeHook
 0004:00006140       CodeHookTest.GCodeHookHelper
 0001:00091EC0       CodeHookTest.InitWithDll
 0001:00091BCC       CodeHookTest.MsgBox
 0001:00091D84       CodeHookTest.TObjHook.TestHook
 0001:00091CF0       CodeHookTest.TObjTarget.TestTarget
 0001:00033000       CommCtrl.ImageList_Create
 0001:00033008       CommCtrl.ImageList_Destroy
 0001:00032FF8       CommCtrl.InitCommonControls
 0001:00033010       CommDlg.GetSaveFileNameA
 0001:00033018       CommDlg.PrintDlg
 0003:00002D94       madCrypt.b64
 0003:00001D4C       madCrypt.CPArr
 0001:00019728       madCrypt.crypt2dwords
 0001:00019BF0       madCrypt.cryptBuf
 0003:00001D94       madCrypt.CSArr
 0001:0001A110       madCrypt.Decode
 0001:0001A264       madCrypt.Decode
 0001:00019DE0       madCrypt.Decrypt
 0001:0001A0AC       madCrypt.Encode
 0001:00019F74       madCrypt.Encode
 0001:00019F08       madCrypt.OldDecrypt
 0001:00019E9C       madCrypt.OldEncrypt
 0001:00019AE8       madCrypt.SetPassword
 0001:000196FC       madCrypt.SwapDword
 0004:00003D84       madDisAsm..1
 0001:0001E798       madDisAsm.AddCodeArea
 0001:0001FB24       madDisAsm.AddLine
 0001:0001E934       madDisAsm.AddSpecialBlock
 0003:00002DE0       madDisAsm.BcbInitExceptBlockLDTC
 0003:000033D0       madDisAsm.C3dNowLabels
 0001:0001F3B4       madDisAsm.CalcCodeBegin
 0001:0001C8D4       madDisAsm.CalcMSize
 0003:000033C8       madDisAsm.Ccc
 0003:00002DD4       madDisAsm.CErrorStr_InvalidCode
 0001:0001E9FC       madDisAsm.CheckAddTarget
 0001:0001D9C0       madDisAsm.CheckFunctionName
 0001:0001B3F8       madDisAsm.CheckPrefix
 0001:0001C0A4       madDisAsm.CheckRegState
 0001:0001DB94       madDisAsm.CheckStringData
 0001:0001BDF8       madDisAsm.CheckTarget
 0001:00021254       madDisAsm.CheckTryRead
 0003:00002DE4       madDisAsm.CKernel32
 0003:00002DE8       madDisAsm.CKernelbase
 0001:0001C7B8       madDisAsm.CodeToHex
 0003:00002DF4       madDisAsm.COpcodeFlags
 0003:00002FF4       madDisAsm.COpcodeFlags0f
 0003:000031F4       madDisAsm.COpcodeFlagsEx
 0003:000033D4       madDisAsm.COpcodeLabelIndex
 0003:000034D4       madDisAsm.COpcodeLabelIndex0f
 0003:000033CC       madDisAsm.COpcodeLabels
 0003:00002DEC       madDisAsm.CReadProcessMemory
 0003:00003348       madDisAsm.CRegLabels
 0003:00002DF0       madDisAsm.CWriteProcessMemory
 0001:0001C998       madDisAsm.DisAsmModRm
 0001:0001FFFC       madDisAsm.DoItAll
 0001:0002121C       madDisAsm.EndTryRead
 0001:00021390       madDisAsm.Finalization
 0001:0001FA90       madDisAsm.FindCodeArea
 0001:0001F44C       madDisAsm.FindCodeArea
 0001:0001C7F8       madDisAsm.FindProcName
 0003:000035DC       madDisAsm.FMagic
 0003:000035E0       madDisAsm.FMagic95
 0003:000035E4       madDisAsm.FMagicReady
 0001:00020FA4       madDisAsm.Fs
 0001:0001A7C0       madDisAsm.GetHalt0Addr
 0001:0001A7A0       madDisAsm.GetHandleAnyExceptionAddr
 0001:0001A7B0       madDisAsm.GetHandleAutoExceptionAddr
 0001:0001A7B8       madDisAsm.GetHandleFinallyAddr
 0001:0001A7A8       madDisAsm.GetHandleOnExceptionAddr
 0001:0001CF4C       madDisAsm.GetLabel
 0003:00002DDC       madDisAsm.GetLineNumber
 0003:00002DD8       madDisAsm.GetProcNameFromMapFile
 0001:0001B8F0       madDisAsm.IsValidOpcode
 0001:0001D4BC       madDisAsm.IxToDw
 0001:0001D7AC       madDisAsm.IxToInt
 0001:00020DDC       madDisAsm.kernel32handle
 0003:000035D4       madDisAsm.kernel32handle_
 0001:00020E70       madDisAsm.kernelbasehandle
 0003:000035D8       madDisAsm.kernelbasehandle_
 0001:00020F08       madDisAsm.KernelProc
 0002:000000FC       madDisAsm.madDisAsm
 0001:00020FA8       madDisAsm.Magic
 0001:00021070       madDisAsm.Magic95
 0001:0001E6E0       madDisAsm.ParseCode
 0001:0001E764       madDisAsm.ParseCode
 0001:0001C590       madDisAsm.ParseCode
 0001:0001DDC0       madDisAsm.ParseCode
 0001:0001EF88       madDisAsm.ParseCodeArea
 0001:0001E77C       madDisAsm.ParseCode_
 0001:0001FA48       madDisAsm.ParseFunction
 0001:00020B38       madDisAsm.ParseFunctionEx
 0001:0001F498       madDisAsm.ParseFunction_
 0001:0001B80C       madDisAsm.ParseImmediateData
 0001:0001B514       madDisAsm.ParseModRm
 0003:000035E8       madDisAsm.ReadProcessMemory
 0001:0001D354       madDisAsm.RegStr
 0001:0001C82C       madDisAsm.St
 0001:00021114       madDisAsm.StartTryRead
 0001:00021318       madDisAsm.TryRead
 0004:00003DA8       madExcept..3
 0001:0004FD30       madExcept..TExceptionBox
 0001:0003E094       madExcept..TIMEAttachments
 0001:0003FD70       madExcept..TIMEException
 0001:0003E6C4       madExcept..TIMEFields
 0001:00039B8C       madExcept..TIMESettings
 0004:00003DBC       madExcept.ActionHandlers
 0004:00003DC0       madExcept.ActionHandlersOO
 0003:00003610       madExcept.AddCmdLineToBugRep
 0001:00053F10       madExcept.AddColumnStr
 0001:0004DDEC       madExcept.AddHeaderInfo
 0001:00059EE0       madExcept.AddItem
 0001:0005CB18       madExcept.AddItem
 0001:00037FC0       madExcept.AddMEProperty
 0001:000597C4       madExcept.AddPatch
 0001:00061CDC       madExcept.AddPtr
 0003:0000364C       madExcept.AmHttpServer
 0003:00003DEC       madExcept.AmInTraceProcess
 0003:000036B0       madExcept.AmMeBpl
 0001:00049A30       madExcept.AmOnline
 0003:00003DF8       madExcept.AmSyncingHandlers
 0001:00053A28       madExcept.AnalyzePiece
 0003:00003E18       madExcept.AntiFreezeCnt
 0003:00003E20       madExcept.AntiFreezeEvent
 0003:00003E14       madExcept.AntiFreezeMsg
 0003:00003E1C       madExcept.AntiFreezePause
 0003:00003E0C       madExcept.AntiFreezeTh
 0001:00042824       madExcept.AntiFreezeThread
 0003:00003E08       madExcept.AntiFreezeTid
 0003:00003E10       madExcept.AntiFreezeWnd
 0003:00003F20       madExcept.Armadillo
 0003:000036A8       madExcept.BcbCallTerminate
 0003:00003694       madExcept.BcbExceptionHandler
 0003:00003738       madExcept.BcbExceptTlsOffset
 0001:00036820       madExcept.BcbGetExceptionObjectCallback
 0004:00003DD0       madExcept.BcbGetExceptionObjectNext
 0003:0000373C       madExcept.BcbGetTls
 0001:00036928       madExcept.BcbInitCatchArgPascalCallback
 0004:00003DD8       madExcept.BcbInitCatchArgPascalNext
 0003:0000369C       madExcept.BcbInitExceptBlockLDTC
 0001:00036738       madExcept.BcbMallocCallback
 0004:00003DCC       madExcept.BcbMallocNext
 0003:000036A4       madExcept.BcbMemcpy
 0003:000036A0       madExcept.BcbOrgMalloc
 0003:000036AC       madExcept.BcbPTerminate
 0001:000368A0       madExcept.BcbRaiseExceptionCallback
 0004:00003DD4       madExcept.BcbRaiseExceptionNext
 0001:000369EC       madExcept.BcbTerminateCallback
 0003:00003698       madExcept.BcbThrowExceptionLDTC
 0003:00003650       madExcept.BugReportHtml
 0003:00003EF4       madExcept.CAdminSia
 0001:00061D5C       madExcept.CalcCheckSum
 0001:00033A88       madExcept.CalibrateCode
 0003:00003648       madExcept.CalibrateData
 0001:000620F4       madExcept.CalibrateModule
 0001:00062220       madExcept.CalibrateModules
 0001:00060A78       madExcept.CallThreadProcSafe
 0003:00003734       madExcept.CBcbXorCheck
 0003:00003E8C       madExcept.CBoundary
 0003:00003DE0       madExcept.CDfmHeader
 0003:00003E4C       madExcept.CEncodeMailto
 0003:00003E6C       madExcept.CEncodeSmtp
 0003:00003678       madExcept.CGIApp_TCGIApplication_CGIHandleException
 0001:00035A8C       madExcept.CheckAutoBtn
 0001:000579D0       madExcept.CheckAutoSave
 0001:00057C5C       madExcept.CheckAutoStuff
 0001:0005078C       madExcept.CheckColDec
 0001:00042AE4       madExcept.CheckEMailAddress
 0001:00037454       madExcept.CheckExceptAddr
 0001:0003725C       madExcept.CheckExceptParams
 0001:00061DB8       madExcept.CheckFileCrc
 0001:0005EEF4       madExcept.CheckFilters
 0001:0004C8F0       madExcept.CheckIt
 0001:000512C4       madExcept.CheckNcLabel
 0001:00061BE0       madExcept.CheckRestart
 0003:00003674       madExcept.Classes_CheckSynchronize
 0001:000347D8       madExcept.ClearTempPath
 0001:000638BC       madExcept.Close
 0001:000429E0       madExcept.CloseAntiFreeze
 0003:00003618       madExcept.CloseAppExitCode
 0001:0004FC00       madExcept.CloseApplication
 0001:00061470       madExcept.CloseCreateThreadHook
 0001:00042314       madExcept.CloseFireHandlers
 0001:00058310       madExcept.CloseHandleExceptionThread
 0001:000616DC       madExcept.CloseMessageHooks
 0003:00003600       madExcept.CMadExceptVersionString
 0003:00003740       madExcept.CMEProperties
 0003:00003E90       madExcept.CMonths
 0003:000036C4       madExcept.CNtObjAttr
 0001:00053EB4       madExcept.ColumnExists
 0001:0004DF68       madExcept.CompareHeaderInfo
 0001:0005879C       madExcept.CompletePhaseHandlerExists
 0001:00034908       madExcept.CompName
 0001:0004B5F8       madExcept.ConnectToServer
 0001:00041D68       madExcept.ContainsSyncHandler
 0001:00060004       madExcept.CreateAVStr
 0001:00055958       madExcept.CreateButton
 0001:000549C0       madExcept.CreateListView
 0001:000558AC       madExcept.CreateWindow_
 0003:00003EC0       madExcept.CRes
 0003:000036DC       madExcept.CsVersion
 0001:0005387C       madExcept.CutInPieces
 0003:00003E28       madExcept.CValidChars
 0001:000507E4       madExcept.DecCol
 0001:0004DA30       madExcept.DecryptPassword
 0001:00056D58       madExcept.DefaultBugReportHtml
 0001:00051340       madExcept.DefWindowProcX
 0001:00038934       madExcept.DereferenceMeSettingsBuf
 0001:00038E7C       madExcept.DereferenceMeSettingsModule
 0003:00003614       madExcept.DetectConsole
 0003:00003654       madExcept.DisAsmFunc
 0001:00057ABC       madExcept.DoExceptionAutoStuff
 0001:00041EC4       madExcept.DoFireHandlers
 0003:0000363C       madExcept.DontReformatExcMsg
 0003:00003628       madExcept.DontUseProxy
 0001:00050BF0       madExcept.DrawLine
 0001:000511A4       madExcept.DrawLineEx
 0003:00003620       madExcept.DumbStackTrace
 0001:0005F394       madExcept.Ebp
 0001:0004A078       madExcept.EncodeStr
 0001:00038654       madExcept.EnterSettingsMutex
 0001:000619CC       madExcept.EnumWindowProc
 0001:0005ED60       madExcept.EnumWindowsProc
 0001:0005F38C       madExcept.Esp
 0004:00003DB4       madExcept.ExceptHandlers
 0004:00003DB8       madExcept.ExceptHandlersOO
 0003:00003F00       madExcept.exceptionNumber
 0001:00035C80       madExcept.ExpandVars
 0001:0004E9A4       madExcept.ExtractBugReportHeaderField
 0001:00034340       madExcept.ExtractFileDrive
 0001:00034248       madExcept.ExtractFileName
 0001:000342C4       madExcept.ExtractFilePath
 0001:0004DCA0       madExcept.ExtractHeaderInfo
 0001:00036678       madExcept.FillClipboard
 0001:00038B0C       madExcept.FillProps
 0001:00063A94       madExcept.Finalization
 0001:00061F7C       madExcept.FindBpl
 0001:0005EE50       madExcept.FindClass
 0001:00052B20       madExcept.FindColumns
 0001:000529E8       madExcept.FindLines
 0001:00038500       madExcept.FindMEProperty
 0001:00047AFC       madExcept.FindMeSettings
 0001:00041420       madExcept.FireHandlers
 0003:00003DF4       madExcept.FireHandlersMsg
 0003:00003DF0       madExcept.FireHandlersWnd
 0001:0004DBBC       madExcept.ForceDir
 0003:00003634       madExcept.ForceUtf8
 0001:000365CC       madExcept.FormatExceptMessage
 0001:00048FC8       madExcept.FormatMailAddr
 0003:00003658       madExcept.Forms_TApplication_HandleException
 0003:0000365C       madExcept.Forms_TApplication_ShowException
 0001:0004A06C       madExcept.FourBitToHex
 0001:00038E1C       madExcept.FreeProps
 0003:00003E24       madExcept.FreezeTimeout
 0001:00059484       madExcept.Get9xResourceReport
 0001:0005971C       madExcept.GetAllocatedMemory
 0001:0004B368       madExcept.GetAttachSize
 0001:00037158       madExcept.GetBcbExceptInfo
 0001:00061734       madExcept.GetBugReport
 0001:0004DAC0       madExcept.GetBugReportFile
 0001:0005C188       madExcept.GetCleartextDisAsm
 0001:000512A8       madExcept.GetClientCursorPos
 0001:00059210       madExcept.GetCpuCount
 0001:00059160       madExcept.GetCpuName
 0001:0005BB5C       madExcept.GetCpuRegisters
 0001:0004B6DC       madExcept.GetDateTimeStr
 0001:0004DFFC       madExcept.GetDesktopDir
 0001:00059D68       madExcept.GetDiskStr
 0001:00059540       madExcept.GetDisplayModeString
 0001:0004A528       madExcept.GetDnsIps
 0001:0005EE38       madExcept.GetExceptBoxHandle
 0001:000363C0       madExcept.GetExceptClass_
 0001:00036478       madExcept.GetExceptMessage_
 0001:00043078       madExcept.GetFileTime
 0001:00036A6C       madExcept.GetHandleAnyExceptionAddr
 0001:0004A8C4       madExcept.GetLabel
 0001:00059304       madExcept.GetMemoryStatus
 0001:00037F68       madExcept.GetMeSettingsRes
 0001:00061548       madExcept.GetMessageCallbackA
 0001:00061594       madExcept.GetMessageCallbackW
 0001:0004B814       madExcept.GetMessageId
 0001:00034CA4       madExcept.GetModuleList
 0001:00058FBC       madExcept.GetOsLanguageString
 0001:00058F0C       madExcept.GetOsVersionString
 0001:00059654       madExcept.GetProcessMemInfo
 0001:0005905C       madExcept.GetProgramUpTime
 0001:000389BC       madExcept.GetPropStr
 0001:0004CE68       madExcept.GetProxyServer
 0001:00043104       madExcept.GetScreenShotFile
 0001:00034BBC       madExcept.GetSeconds
 0001:0004A9F4       madExcept.GetServers
 0001:0005BEE0       madExcept.GetStackDump
 0001:00059004       madExcept.GetSystemUpTime
 0001:00054974       madExcept.GetTabClientRect
 0001:000356F8       madExcept.GetTebIndex
 0001:00034688       madExcept.GetTempPath
 0001:0005C96C       madExcept.GetThreadInfos
 0001:00035384       madExcept.GetThreadInfoStr
 0001:00033CD8       madExcept.GetThreadList
 0001:0005B900       madExcept.GetThreadReport
 0001:0005CC00       madExcept.GetThreadStack
 0001:00058B8C       madExcept.GetTSClientName
 0001:00049994       madExcept.GoOnline
 0001:00042C20       madExcept.HandleContactForm
 0001:00060C1C       madExcept.HandleCreateThreadHook
 0001:000583D4       madExcept.HandleException
 0003:00003EEC       madExcept.HandleExceptionRP
 0003:00003EE8       madExcept.HandleExceptionTh
 0001:0005823C       madExcept.HandleExceptionThread
 0003:00003EE4       madExcept.HandleExceptionTid
 0003:00003EF0       madExcept.HandleExceptionWP
 0001:0006064C       madExcept.HandleHiddenException
 0003:000036B4       madExcept.HandlerSection
 0001:00043184       madExcept.HandleScreenshotForm
 0003:00003638       madExcept.HiddenAutoMailing
 0004:00003DC4       madExcept.HiddenHandlers
 0004:00003DC8       madExcept.HiddenHandlersOO
 0001:00036A80       madExcept.HookBcbExceptions
 0001:000610AC       madExcept.HookedCreateRemoteThread
 0001:00061000       madExcept.HookedCreateThread
 0001:00061204       madExcept.HookedQueueUserWorkItem
 0001:00060B78       madExcept.HookedTThreadExecute
 0001:000369C8       madExcept.HookHandleAnyException
 0003:00003680       madExcept.HttpExtensionProcNext
 0003:00003624       madExcept.HttpUploadTimeout
 0001:00061AC0       madExcept.HyperJumpCallstack
 0001:00062308       madExcept.Init
 0001:00042950       madExcept.InitAntiFreeze
 0001:00061304       madExcept.InitCreateThreadHook
 0001:000422F4       madExcept.InitFireHandlers
 0001:00058298       madExcept.InitHandleExceptionThread
 0001:000615E0       madExcept.InitMessageHooks
 0001:00034C00       madExcept.InitSecAttr
 0001:00035850       madExcept.InRangeOrZero
 0001:0005F57C       madExcept.InterceptAHandleExcept
 0001:0005F554       madExcept.InterceptAShowExcept
 0001:0005F5C0       madExcept.InterceptCGIHandleException
 0001:00060538       madExcept.InterceptExceptionHandler
 0001:0005FF20       madExcept.InterceptExceptProc
 0001:0005FEC4       madExcept.InterceptFinalizeUnits
 0001:00060844       madExcept.InterceptFreeExceptObject
 0001:0006059C       madExcept.InterceptHandleAutoException
 0001:0005F9E8       madExcept.InterceptHttpExtensionProc
 0001:0005FE3C       madExcept.InterceptInitializePackage
 0001:0005F5E8       madExcept.InterceptISAPIHandleException
 0001:0005F844       madExcept.InterceptServerSupportFunction
 0001:0005F528       madExcept.InterceptSShowExcept
 0001:0005FCF8       madExcept.InterceptSynchronize
 0001:0005FD54       madExcept.InterceptWriteErrorMessage
 0001:00034E04       madExcept.InvalidImportTable
 0003:00003F1C       madExcept.IRCount
 0004:00003E04       madExcept.IRList
 0003:00003F18       madExcept.IRSection
 0003:0000367C       madExcept.ISAPIApp_TISAPIApplication_ISAPIHandleException
 0005:000000DC       madExcept.isapiBugReport
 0005:000000E0       madExcept.isapiExceptAddr
 0001:000362E4       madExcept.IsClass
 0001:00037370       madExcept.IsCorrectExceptAddr
 0001:00042324       madExcept.IsDelphiThread
 0001:000356AC       madExcept.IsNewCs
 0001:00035730       madExcept.IsProcessBlocked
 0001:00035708       madExcept.IsSectionLocked
 0001:0005C93C       madExcept.IsThreadSuspended
 0001:00058ACC       madExcept.IsUserAdmin
 0001:000357A0       madExcept.IsValidIdent
 0001:00035864       madExcept.IsValidObject
 0001:00034448       madExcept.KillExt
 0003:000036E4       madExcept.Last10Exceptions
 0005:00000010       madExcept.LastContext
 0005:0000000C       madExcept.LastExceptAddr
 0005:00000008       madExcept.LastExceptObject
 0001:0003870C       madExcept.LeaveSettingsMutex
 0001:0005FE9C       madExcept.Log1
 0002:00000154       madExcept.madExcept
 0003:000036B8       madExcept.madExceptBuf
 0003:00003EFC       madExcept.MadExceptPause
 0001:000617CC       madExcept.madTraceProcess
 0001:00048F7C       madExcept.MailAddrCount
 0001:0004BFBC       madExcept.MailIt
 0001:0004B3E4       madExcept.Mail_PrepareProgress
 0003:00003E00       madExcept.MainThreadSE
 0001:00060264       madExcept.MapToRunError
 0001:00047D48       madExcept.MESettings
 0001:00047C84       madExcept.MESettings
 0001:00047E68       madExcept.MESettings
 0003:00003DE4       madExcept.meSettingsBuf
 0001:00047E88       madExcept.MESettingsEx
 0001:00034214       madExcept.ModuleName
 0001:0004AEF0       madExcept.MxLookup
 0001:0005F398       madExcept.MyExceptObjProc
 0001:0005F4C0       madExcept.MyExceptObjProc1
 0001:0005F4C8       madExcept.MyExceptObjProc2
 0001:0005F4D4       madExcept.MyRaiseExceptProc
 0003:00003DE8       madExcept.mySettings
 0001:000352CC       madExcept.NameThread
 0001:00048F58       madExcept.NewAttachments
 0001:0005EFB8       madExcept.NewException
 0003:00003F24       madExcept.NextCreateThread
 0003:00003F30       madExcept.NextGetMessageA
 0003:00003F38       madExcept.NextGetMessageW
 0003:00003F34       madExcept.NextPeekMessageA
 0003:00003F3C       madExcept.NextPeekMessageW
 0003:00003F28       madExcept.NextQueueUserWorkItem
 0003:00003630       madExcept.NoOnlineCheck
 0001:0004AB54       madExcept.nslookup
 0003:000036C0       madExcept.NtOpenThreadProc
 0003:00003F40       madExcept.OldExceptionFilter
 0003:00003604       madExcept.OnExceptBoxCreate
 0003:00003608       madExcept.OnExceptBoxDestroy
 0001:00034060       madExcept.OpenThread
 0003:000036BC       madExcept.OpenThreadProc
 0003:00003E04       madExcept.OtherThreadsSE
 0004:00003DE0       madExcept.OutOfMemoryInsurance
 0001:00038094       madExcept.ParseMEProperties
 0001:00060854       madExcept.PatchAPI
 0001:00059A5C       madExcept.PatchCall
 0001:00034EDC       madExcept.PatchImportTable
 0001:00034F74       madExcept.PatchImportTables
 0001:00059A7C       madExcept.PatchInt
 0001:00059A2C       madExcept.PatchJmp
 0004:00003E00       madExcept.PatchList
 0001:00061230       madExcept.PatchRelCall
 0001:00042A60       madExcept.PauseFreezeCheck
 0001:000426A0       madExcept.PauseMeEventually
 0001:0006156C       madExcept.PeekMessageCallbackA
 0001:000615B8       madExcept.PeekMessageCallbackW
 0003:00003F08       madExcept.PExceptObjProc
 0001:000496C4       madExcept.Ping
 0003:00003E48       madExcept.PingCount
 0004:00003DA4       madExcept.Plugins
 0003:00003F0C       madExcept.PMyExceptObjProc1
 0003:00003F10       madExcept.PMyExceptObjProc2
 0003:00003F14       madExcept.PMyRaiseExceptProc
 0001:00049088       madExcept.PrepareAttachments
 0001:00054440       madExcept.PrepareListView_AutoFormat
 0001:00052D78       madExcept.PrepareListView_Columns
 0001:000530B4       madExcept.PrepareListView_CpuRegs
 0001:0005349C       madExcept.PrepareListView_DisAsm
 0001:00053028       madExcept.PrepareListView_Header
 0001:00052EF4       madExcept.PrepareListView_Items
 0001:00053218       madExcept.PrepareListView_Modules
 0001:000532D8       madExcept.PrepareListView_Processes
 0001:00053168       madExcept.PrepareListView_StackDump
 0001:00053FE0       madExcept.PrepareListView_Thread
 0001:0005D210       madExcept.PrepareThreadReport
 0001:0004F6AC       madExcept.PrintBugReport
 0003:0000360C       madExcept.ProcessMainThreadId
 0003:0000362C       madExcept.ProxyServer
 0001:00041A68       madExcept.PutAssisIntoBugReport
 0003:00003660       madExcept.Qforms_TApplication_HandleException
 0003:00003664       madExcept.Qforms_TApplication_ShowException
 0001:0005FEA0       madExcept.RealStuff
 0001:000427E4       madExcept.ReceiveAntiFreeze
 0001:00041A40       madExcept.ReceiveFireHandlers
 0001:00057D58       madExcept.ReceiveHandleException
 0001:0004B8B0       madExcept.RecvStr
 0001:0004CA40       madExcept.RecvStr
 0001:00038720       madExcept.ReferenceMeSettingsBuf
 0001:00038CFC       madExcept.ReferenceMeSettingsModule
 0001:00038EF0       madExcept.RefreshProps
 0001:00034B24       madExcept.RegDelVal
 0001:00058850       madExcept.RegisterBugReportPlugin
 0001:00058914       madExcept.RegisterBugReportPlugin
 0001:00034940       madExcept.RegReadStr
 0001:00034A50       madExcept.RegWriteStr
 0001:000344C4       madExcept.RelativeToAbsolute
 0001:0005F710       madExcept.RemoveIR
 0001:0004CF48       madExcept.RemoveProtocol
 0001:0005FF74       madExcept.Replace1Str
 0001:00035B10       madExcept.ReplaceVersion
 0003:0000361C       madExcept.ResetFpuMode
 0001:0004FAB0       madExcept.RestartApplication
 0001:00042780       madExcept.ResumeMainThread
 0001:00060530       madExcept.RtlUnwind
 0001:0004E138       madExcept.SaveBugReportEx
 0001:0004EB98       madExcept.SendBugReportEx
 0001:0004EB58       madExcept.SendBugReportExThread
 0001:0004CBE0       madExcept.SendFile
 0001:0004BC30       madExcept.SendFile
 0001:00049D24       madExcept.SendMapiMailEx
 0001:0004BB84       madExcept.SendRecv
 0001:0004A1CC       madExcept.SendShellMail
 0001:0004B2B8       madExcept.SendStr
 0001:00037F84       madExcept.SetMEPropertyStr
 0001:00038A44       madExcept.SetPropStr
 0001:00035004       madExcept.SetThreadInfo
 0001:00035AF8       madExcept.SHGetMalloc
 0001:00035B08       madExcept.SHGetPathFromIDListA
 0001:00035B00       madExcept.SHGetSpecialFolderLocation
 0003:00003644       madExcept.ShowBugReportKey
 0001:000574B8       madExcept.ShowExceptBox
 0001:0005771C       madExcept.ShowException
 0003:00003640       madExcept.SmtpMailFrom
 0001:0004D7E8       madExcept.SmtpOrUpload
 0001:00049C18       madExcept.SplitEMailAddr
 0004:00003DAC       madExcept.StartTime
 0001:0004AAE8       madExcept.StrToSAddr
 0001:00042434       madExcept.SuspendDelphiThreads
 0001:000427B8       madExcept.SuspendMainThread
 0003:00003DFC       madExcept.SuspendSection
 0004:00003DDC       madExcept.SuspendThreadIds
 0001:00061CE4       madExcept.System_DoneExcept
 0003:0000368C       madExcept.System_ExceptionHandler
 0003:00003688       madExcept.System_FinalizeUnits
 0003:000036E0       madExcept.System_FpuInit
 0001:00061CF8       madExcept.System_Halt0
 0001:00061D20       madExcept.System_HandleAnyException
 0001:00061D0C       madExcept.System_HandleAutoException
 0001:00061D34       madExcept.System_HandleOnException
 0003:00003684       madExcept.System_InitUnits
 0001:00061D48       madExcept.System_RaiseExcept
 0003:00003690       madExcept.System_runErrMsg
 0003:00003670       madExcept.SysUtils_InitializePackage
 0003:0000366C       madExcept.SysUtils_LoadPackage
 0003:00003668       madExcept.SysUtils_ShowException
 0001:000520B8       madExcept.TExceptionBox.BugReportChanged
 0001:00054DB4       madExcept.TExceptionBox.CheckCurrentTab
 0001:00055480       madExcept.TExceptionBox.CheckTabs
 0001:0005114C       madExcept.TExceptionBox.CloseMainWnd
 0001:00055AFC       madExcept.TExceptionBox.Create
 0001:00056CA4       madExcept.TExceptionBox.Destroy
 0001:00051378       madExcept.TExceptionBox.DialogWndMethod
 0001:00051178       madExcept.TExceptionBox.DoDetails
 0001:00050C70       madExcept.TExceptionBox.DrawButton
 0001:00050900       madExcept.TExceptionBox.DrawGraphic
 0001:00050FE4       madExcept.TExceptionBox.FlashButton
 0001:000506F8       madExcept.TExceptionBox.GetTextWidth
 0001:00052110       madExcept.TExceptionBox.ListViewWndProc
 0001:00060AB8       madExcept.ThreadExceptFrame
 0003:00003F2C       madExcept.ThreadsHooked
 0001:00048968       madExcept.TIMEAttachments.Add
 0001:00048C6C       madExcept.TIMEAttachments.Clear
 0001:00048D90       madExcept.TIMEAttachments.ClearParent
 0001:00048CE4       madExcept.TIMEAttachments.Clone
 0001:00048EE8       madExcept.TIMEAttachments.Create
 0001:00048B40       madExcept.TIMEAttachments.Delete
 0001:00048F28       madExcept.TIMEAttachments.Destroy
 0001:000488B0       madExcept.TIMEAttachments.GetItem
 0001:000488AC       madExcept.TIMEAttachments.GetItemCount
 0001:00048894       madExcept.TIMEAttachments.Lock
 0001:00048D98       madExcept.TIMEAttachments.Modified
 0001:000488A0       madExcept.TIMEAttachments.Unlock
 0001:0005DF48       madExcept.TIMEException.BeginUpdate
 0001:0005E9EC       madExcept.TIMEException.CloseApplication
 0001:0005C280       madExcept.TIMEException.CompleteBugReport
 0001:0005E93C       madExcept.TIMEException.ContinueApplication
 0001:0005EBA0       madExcept.TIMEException.Create
 0001:0005E404       madExcept.TIMEException.CriticalBugReportCallbackExists
 0001:0005EC18       madExcept.TIMEException.Destroy
 0001:0005DF54       madExcept.TIMEException.EndUpdate
 0001:0005EA54       madExcept.TIMEException.FindProp
 0001:0005E550       madExcept.TIMEException.FireChangeEvent
 0001:0005EB80       madExcept.TIMEException.FirstAutoSave
 0001:0005EB68       madExcept.TIMEException.FirstCompleteCallback
 0001:00059AF8       madExcept.TIMEException.GetAppendScreenShot
 0001:0005D83C       madExcept.TIMEException.GetBugReport
 0001:00059FC8       madExcept.TIMEException.GetBugReportHeader
 0001:0005D404       madExcept.TIMEException.GetBugReportSections
 0001:00059ACC       madExcept.TIMEException.GetBugReport_
 0001:00059AF0       madExcept.TIMEException.GetCallHandlers
 0001:00059C0C       madExcept.TIMEException.GetCallstackCrc
 0001:00059A98       madExcept.TIMEException.GetCanContinue
 0001:0005C934       madExcept.TIMEException.GetCompleteThreadId
 0001:00059C20       madExcept.TIMEException.GetContext
 0001:00059AB0       madExcept.TIMEException.GetCrashedThreadId
 0001:00059AE0       madExcept.TIMEException.GetCreateBugReport
 0001:00059AE8       madExcept.TIMEException.GetCreateScreenShot
 0001:00059AAC       madExcept.TIMEException.GetExceptAddr
 0001:00059B20       madExcept.TIMEException.GetExceptClass
 0001:00059B8C       madExcept.TIMEException.GetExceptMessage
 0001:00059AA8       madExcept.TIMEException.GetExceptObject
 0001:00059AA0       madExcept.TIMEException.GetExceptType
 0001:0005EB58       madExcept.TIMEException.GetMailWasSaved
 0001:0005EB48       madExcept.TIMEException.GetMailWasSent
 0001:00059AC4       madExcept.TIMEException.GetPackage
 0001:00059A90       madExcept.TIMEException.GetPhase
 0001:00059ABC       madExcept.TIMEException.GetRelatedObject
 0001:0005DE70       madExcept.TIMEException.GetScreenShot
 0001:00059B08       madExcept.TIMEException.GetShowAssistant
 0001:00059B00       madExcept.TIMEException.GetShowSetting
 0001:00059AB4       madExcept.TIMEException.GetSource
 0001:0005E8A0       madExcept.TIMEException.PrintBugReport
 0001:0005EB98       madExcept.TIMEException.PSendThread
 0001:0005E0D8       madExcept.TIMEException.RegisterBugReportCallback
 0001:0005DF7C       madExcept.TIMEException.RegisterBugReportCallback
 0001:0005E984       madExcept.TIMEException.RestartApplication
 0001:0005E7F8       madExcept.TIMEException.SaveBugReport
 0001:0005E6FC       madExcept.TIMEException.SendBugReport
 0001:00059C74       madExcept.TIMEException.SetAppendScreenShot
 0001:0005D7E4       madExcept.TIMEException.SetBugReport
 0001:00059C6C       madExcept.TIMEException.SetCallHandlers
 0001:00059C48       madExcept.TIMEException.SetCanContinue
 0001:00059C5C       madExcept.TIMEException.SetCreateBugReport
 0001:00059C64       madExcept.TIMEException.SetCreateScreenShot
 0001:0005EB60       madExcept.TIMEException.SetMailWasSaved
 0001:0005EB50       madExcept.TIMEException.SetMailWasSent
 0001:0005E4BC       madExcept.TIMEException.SetModified
 0001:00059C30       madExcept.TIMEException.SetPhase
 0001:0005DEF8       madExcept.TIMEException.SetScreenShot
 0001:00059C84       madExcept.TIMEException.SetShowAssistant
 0001:00059C7C       madExcept.TIMEException.SetShowSetting
 0001:0005E6CC       madExcept.TIMEException.Show
 0001:0005E6DC       madExcept.TIMEException.ShowBugReport
 0001:0005E328       madExcept.TIMEException.UnregisterBugReportCallback
 0001:0005E258       madExcept.TIMEException.UnregisterBugReportCallback
 0001:0004881C       madExcept.TIMEFields.AcceptData
 0001:000482AC       madExcept.TIMEFields.Add
 0001:000486D0       madExcept.TIMEFields.ClearExcParent
 0001:000486D8       madExcept.TIMEFields.ClearMesParent
 0001:000485E0       madExcept.TIMEFields.Clone
 0001:00048824       madExcept.TIMEFields.Create
 0001:0004858C       madExcept.TIMEFields.Delete
 0001:000484E4       madExcept.TIMEFields.Delete
 0001:00048864       madExcept.TIMEFields.Destroy
 0001:00048010       madExcept.TIMEFields.FindItem
 0001:000480C0       madExcept.TIMEFields.GetContent
 0001:00047EF0       madExcept.TIMEFields.GetItem
 0001:00047EEC       madExcept.TIMEFields.GetItemCount
 0001:00048310       madExcept.TIMEFields.Insert
 0001:00047EB4       madExcept.TIMEFields.Lock
 0001:000486E0       madExcept.TIMEFields.Modified
 0001:00048818       madExcept.TIMEFields.SetAddIndex
 0001:00048160       madExcept.TIMEFields.SetContent
 0001:00047F5C       madExcept.TIMEFields.SetItem
 0001:00047ED0       madExcept.TIMEFields.Unlock
 0001:000435F8       madExcept.TIMESettings.CheckFileCrc
 0001:00043620       madExcept.TIMESettings.CheckForFreeze
 0001:00047958       madExcept.TIMESettings.Create
 0001:00047A30       madExcept.TIMESettings.Destroy
 0001:00043544       madExcept.TIMESettings.Enabled
 0001:000474B4       madExcept.TIMESettings.FillFormCache
 0001:00046E68       madExcept.TIMESettings.FindProp
 0001:00043644       madExcept.TIMESettings.FreezeTimeout
 0001:00044940       madExcept.TIMESettings.GetAdditionalAttachments
 0001:00044A94       madExcept.TIMESettings.GetAdditionalFields
 0001:000441C0       madExcept.TIMESettings.GetAppendBugReports
 0001:00046BC4       madExcept.TIMESettings.GetAssistant
 0001:00043FCC       madExcept.TIMESettings.GetAttachBugReport
 0001:00043FF4       madExcept.TIMESettings.GetAttachBugReportFile
 0001:00044820       madExcept.TIMESettings.GetAuthMsg
 0001:00043704       madExcept.TIMESettings.GetAutoClipboard
 0001:000437C0       madExcept.TIMESettings.GetAutoClose
 0001:00043774       madExcept.TIMESettings.GetAutoContinue
 0001:000437E4       madExcept.TIMESettings.GetAutoDelay
 0001:0004379C       madExcept.TIMESettings.GetAutoRestart
 0001:0004366C       madExcept.TIMESettings.GetAutoSave
 0001:00043690       madExcept.TIMESettings.GetAutoSaveIfNotSent
 0001:000436BC       madExcept.TIMESettings.GetAutoSend
 0001:000436E0       madExcept.TIMESettings.GetAutoSendPrgrBox
 0001:00043CEC       madExcept.TIMESettings.GetAutoShowBugReport
 0001:000444B4       madExcept.TIMESettings.GetBitFaultMsg
 0001:00044190       madExcept.TIMESettings.GetBugReportFile
 0001:000441E8       madExcept.TIMESettings.GetBugReportFileSize
 0001:00044048       madExcept.TIMESettings.GetBugReportSendAs
 0001:0004407C       madExcept.TIMESettings.GetBugReportZip
 0001:0004460C       madExcept.TIMESettings.GetCloseBtnCaption
 0001:00043C0C       madExcept.TIMESettings.GetCloseBtnVisible
 0001:000447F4       madExcept.TIMESettings.GetConnectMsg
 0001:000445A4       madExcept.TIMESettings.GetContinueBtnCaption
 0001:00043BBC       madExcept.TIMESettings.GetContinueBtnVisible
 0001:00044020       madExcept.TIMESettings.GetDeleteBugReportFile
 0001:0004466C       madExcept.TIMESettings.GetDetailsBtnCaption
 0001:00044260       madExcept.TIMESettings.GetDupExceptDef
 0001:00044290       madExcept.TIMESettings.GetDupFreezeDef
 0001:00044454       madExcept.TIMESettings.GetExceptMsg
 0001:0004487C       madExcept.TIMESettings.GetFieldsMsg
 0001:00043AA8       madExcept.TIMESettings.GetFilter1Assistant
 0001:00043808       madExcept.TIMESettings.GetFilter1Classes
 0001:00043868       madExcept.TIMESettings.GetFilter1NoBugReport
 0001:000439AC       madExcept.TIMESettings.GetFilter1NoHandlers
 0001:000438D4       madExcept.TIMESettings.GetFilter1NoScreenShot
 0001:00043940       madExcept.TIMESettings.GetFilter1NoSuspend
 0001:00043A24       madExcept.TIMESettings.GetFilter1ShowSetting
 0001:00043AD4       madExcept.TIMESettings.GetFilter2Assistant
 0001:00043838       madExcept.TIMESettings.GetFilter2Classes
 0001:0004388C       madExcept.TIMESettings.GetFilter2NoBugReport
 0001:000439D4       madExcept.TIMESettings.GetFilter2NoHandlers
 0001:000438F8       madExcept.TIMESettings.GetFilter2NoScreenShot
 0001:00043964       madExcept.TIMESettings.GetFilter2NoSuspend
 0001:00043A50       madExcept.TIMESettings.GetFilter2ShowSetting
 0001:00043C30       madExcept.TIMESettings.GetFocusedButton
 0001:000443C4       madExcept.TIMESettings.GetFormatDisassembly
 0001:00044484       madExcept.TIMESettings.GetFrozenMsg
 0001:00043B00       madExcept.TIMESettings.GetGeneralAssistant
 0001:000438B0       madExcept.TIMESettings.GetGeneralNoBugReport
 0001:000439FC       madExcept.TIMESettings.GetGeneralNoHandlers
 0001:0004391C       madExcept.TIMESettings.GetGeneralNoScreenShot
 0001:00043988       madExcept.TIMESettings.GetGeneralNoSuspend
 0001:00043A7C       madExcept.TIMESettings.GetGeneralShowSetting
 0001:0004434C       madExcept.TIMESettings.GetHideUglyItems
 0001:00043F68       madExcept.TIMESettings.GetHttpAccount
 0001:00043F98       madExcept.TIMESettings.GetHttpPassword
 0001:00043F44       madExcept.TIMESettings.GetHttpPort
 0001:00043F14       madExcept.TIMESettings.GetHttpServer
 0001:000443EC       madExcept.TIMESettings.GetLimitDisassembly
 0001:000442C0       madExcept.TIMESettings.GetListThreads
 0001:00043D38       madExcept.TIMESettings.GetMailAddr
 0001:00043DBC       madExcept.TIMESettings.GetMailAsSmtpClient
 0001:00043D90       madExcept.TIMESettings.GetMailAsSmtpServer
 0001:00044730       madExcept.TIMESettings.GetMailBody
 0001:00044160       madExcept.TIMESettings.GetMailFrom
 0001:00044700       madExcept.TIMESettings.GetMailSubject
 0001:00043E34       madExcept.TIMESettings.GetMailViaMailto
 0001:00043E10       madExcept.TIMESettings.GetMailViaMapi
 0001:000447C4       madExcept.TIMESettings.GetMxLookupMsg
 0001:00044210       madExcept.TIMESettings.GetNoDupExcepts
 0001:00044238       madExcept.TIMESettings.GetNoDupFreezes
 0001:00043D14       madExcept.TIMESettings.GetNoOwnerDrawButtons
 0001:0004463C       madExcept.TIMESettings.GetOkBtnCaption
 0001:000446D0       madExcept.TIMESettings.GetPleaseWaitText
 0001:000446A0       madExcept.TIMESettings.GetPleaseWaitTitle
 0001:00044BC4       madExcept.TIMESettings.GetPluginEnabled
 0001:00044794       madExcept.TIMESettings.GetPrepareAttachMsg
 0001:00043CBC       madExcept.TIMESettings.GetPrintAssistant
 0001:00044544       madExcept.TIMESettings.GetPrintBtnCaption
 0001:00043B74       madExcept.TIMESettings.GetPrintBtnVisible
 0001:00046F5C       madExcept.TIMESettings.GetPropBool
 0001:0004723C       madExcept.TIMESettings.GetPropDw
 0001:00047028       madExcept.TIMESettings.GetPropInt
 0001:000470F4       madExcept.TIMESettings.GetPropStr
 0001:000445D8       madExcept.TIMESettings.GetRestartBtnCaption
 0001:00043BE4       madExcept.TIMESettings.GetRestartBtnVisible
 0001:00043C8C       madExcept.TIMESettings.GetSaveAssistant
 0001:00044514       madExcept.TIMESettings.GetSaveBtnCaption
 0001:00043B50       madExcept.TIMESettings.GetSaveBtnVisible
 0001:000440D4       madExcept.TIMESettings.GetScreenShotAppOnly
 0001:000440AC       madExcept.TIMESettings.GetScreenShotDepth
 0001:000440FC       madExcept.TIMESettings.GetScreenShotSendAs
 0001:00044130       madExcept.TIMESettings.GetScreenShotZip
 0001:00047954       madExcept.TIMESettings.GetSelf
 0001:00043C5C       madExcept.TIMESettings.GetSendAssistant
 0001:000448AC       madExcept.TIMESettings.GetSendAttachMsg
 0001:00044760       madExcept.TIMESettings.GetSendBoxTitle
 0001:000444E4       madExcept.TIMESettings.GetSendBtnCaption
 0001:00043B2C       madExcept.TIMESettings.GetSendBtnVisible
 0001:00044910       madExcept.TIMESettings.GetSendFailureMsg
 0001:000448DC       madExcept.TIMESettings.GetSendFinalizeMsg
 0001:00043D68       madExcept.TIMESettings.GetSendInBackground
 0001:0004484C       madExcept.TIMESettings.GetSendMailMsg
 0001:00044574       madExcept.TIMESettings.GetShowBtnCaption
 0001:00043B98       madExcept.TIMESettings.GetShowBtnVisible
 0001:000442E4       madExcept.TIMESettings.GetShowCpuRegisters
 0001:00044328       madExcept.TIMESettings.GetShowDisAsm
 0001:00043750       madExcept.TIMESettings.GetShowPleaseWaitBox
 0001:00044374       madExcept.TIMESettings.GetShowRelativeAddrs
 0001:0004439C       madExcept.TIMESettings.GetShowRelativeLines
 0001:00044304       madExcept.TIMESettings.GetShowStackDump
 0001:00043EB0       madExcept.TIMESettings.GetSmtpAccount
 0001:00043EE0       madExcept.TIMESettings.GetSmtpPassword
 0001:00043E8C       madExcept.TIMESettings.GetSmtpPort
 0001:00043E5C       madExcept.TIMESettings.GetSmtpServer
 0001:00043728       madExcept.TIMESettings.GetSuspendThreads
 0001:00044424       madExcept.TIMESettings.GetTitleBar
 0001:00043DE8       madExcept.TIMESettings.GetUploadViaHttp
 0001:00043538       madExcept.TIMESettings.IsValid
 0001:00043564       madExcept.TIMESettings.MinDebugInfoOnly
 0001:00043540       madExcept.TIMESettings.Module
 0001:000435D4       madExcept.TIMESettings.NoOwnSettings
 0001:000476D0       madExcept.TIMESettings.ReadFormCache
 0001:000474A8       madExcept.TIMESettings.Reload
 0001:00045E44       madExcept.TIMESettings.SetAppendBugReports
 0001:00045AEC       madExcept.TIMESettings.SetAttachBugReport
 0001:00045B18       madExcept.TIMESettings.SetAttachBugReportFile
 0001:00046954       madExcept.TIMESettings.SetAuthMsg
 0001:00044E5C       madExcept.TIMESettings.SetAutoClipboard
 0001:00044F2C       madExcept.TIMESettings.SetAutoClose
 0001:00044ED8       madExcept.TIMESettings.SetAutoContinue
 0001:00044F54       madExcept.TIMESettings.SetAutoDelay
 0001:00044F04       madExcept.TIMESettings.SetAutoRestart
 0001:00044DB4       madExcept.TIMESettings.SetAutoSave
 0001:00044DDC       madExcept.TIMESettings.SetAutoSaveIfNotSent
 0001:00044E0C       madExcept.TIMESettings.SetAutoSend
 0001:00044E34       madExcept.TIMESettings.SetAutoSendPrgrBox
 0001:0004565C       madExcept.TIMESettings.SetAutoShowBugReport
 0001:000461F8       madExcept.TIMESettings.SetBitFaultMsg
 0001:00045DDC       madExcept.TIMESettings.SetBugReportFile
 0001:00045E70       madExcept.TIMESettings.SetBugReportFileSize
 0001:00045B74       madExcept.TIMESettings.SetBugReportSendAs
 0001:00045BE0       madExcept.TIMESettings.SetBugReportZip
 0001:000464D8       madExcept.TIMESettings.SetCloseBtnCaption
 0001:000454D4       madExcept.TIMESettings.SetCloseBtnVisible
 0001:000468F0       madExcept.TIMESettings.SetConnectMsg
 0001:00046400       madExcept.TIMESettings.SetContinueBtnCaption
 0001:0004547C       madExcept.TIMESettings.SetContinueBtnVisible
 0001:00045B48       madExcept.TIMESettings.SetDeleteBugReportFile
 0001:000465A8       madExcept.TIMESettings.SetDetailsBtnCaption
 0001:00045EF4       madExcept.TIMESettings.SetDupExceptDef
 0001:00045F20       madExcept.TIMESettings.SetDupFreezeDef
 0001:00046128       madExcept.TIMESettings.SetExceptMsg
 0001:00046A20       madExcept.TIMESettings.SetFieldsMsg
 0001:000452B0       madExcept.TIMESettings.SetFilter1Assistant
 0001:00044F7C       madExcept.TIMESettings.SetFilter1Classes
 0001:0004504C       madExcept.TIMESettings.SetFilter1NoBugReport
 0001:000451B4       madExcept.TIMESettings.SetFilter1NoHandlers
 0001:000450C4       madExcept.TIMESettings.SetFilter1NoScreenShot
 0001:0004513C       madExcept.TIMESettings.SetFilter1NoSuspend
 0001:00045238       madExcept.TIMESettings.SetFilter1ShowSetting
 0001:00045314       madExcept.TIMESettings.SetFilter2Assistant
 0001:00044FE4       madExcept.TIMESettings.SetFilter2Classes
 0001:00045074       madExcept.TIMESettings.SetFilter2NoBugReport
 0001:000451E0       madExcept.TIMESettings.SetFilter2NoHandlers
 0001:000450EC       madExcept.TIMESettings.SetFilter2NoScreenShot
 0001:00045164       madExcept.TIMESettings.SetFilter2NoSuspend
 0001:00045260       madExcept.TIMESettings.SetFilter2ShowSetting
 0001:000454FC       madExcept.TIMESettings.SetFocusedButton
 0001:0004606C       madExcept.TIMESettings.SetFormatDisassembly
 0001:00046190       madExcept.TIMESettings.SetFrozenMsg
 0001:00045378       madExcept.TIMESettings.SetGeneralAssistant
 0001:0004509C       madExcept.TIMESettings.SetGeneralNoBugReport
 0001:0004520C       madExcept.TIMESettings.SetGeneralNoHandlers
 0001:00045114       madExcept.TIMESettings.SetGeneralNoScreenShot
 0001:0004518C       madExcept.TIMESettings.SetGeneralNoSuspend
 0001:00045288       madExcept.TIMESettings.SetGeneralShowSetting
 0001:00045FE8       madExcept.TIMESettings.SetHideUglyItems
 0001:00045A18       madExcept.TIMESettings.SetHttpAccount
 0001:00045A80       madExcept.TIMESettings.SetHttpPassword
 0001:000459F0       madExcept.TIMESettings.SetHttpPort
 0001:00045988       madExcept.TIMESettings.SetHttpServer
 0001:00046098       madExcept.TIMESettings.SetLimitDisassembly
 0001:00045F4C       madExcept.TIMESettings.SetListThreads
 0001:000456B0       madExcept.TIMESettings.SetMailAddr
 0001:00045774       madExcept.TIMESettings.SetMailAsSmtpClient
 0001:00045744       madExcept.TIMESettings.SetMailAsSmtpServer
 0001:0004674C       madExcept.TIMESettings.SetMailBody
 0001:00045D74       madExcept.TIMESettings.SetMailFrom
 0001:000466E4       madExcept.TIMESettings.SetMailSubject
 0001:000457F8       madExcept.TIMESettings.SetMailViaMailto
 0001:000457D0       madExcept.TIMESettings.SetMailViaMapi
 0001:00046888       madExcept.TIMESettings.SetMxLookupMsg
 0001:00045E9C       madExcept.TIMESettings.SetNoDupExcepts
 0001:00045EC8       madExcept.TIMESettings.SetNoDupFreezes
 0001:00045688       madExcept.TIMESettings.SetNoOwnerDrawButtons
 0001:00046540       madExcept.TIMESettings.SetOkBtnCaption
 0001:0004667C       madExcept.TIMESettings.SetPleaseWaitText
 0001:00046614       madExcept.TIMESettings.SetPleaseWaitTitle
 0001:00044C48       madExcept.TIMESettings.SetPluginEnabled
 0001:00046820       madExcept.TIMESettings.SetPrepareAttachMsg
 0001:000455F4       madExcept.TIMESettings.SetPrintAssistant
 0001:00046330       madExcept.TIMESettings.SetPrintBtnCaption
 0001:0004542C       madExcept.TIMESettings.SetPrintBtnVisible
 0001:0004728C       madExcept.TIMESettings.SetPropBool
 0001:00047450       madExcept.TIMESettings.SetPropDw
 0001:0004730C       madExcept.TIMESettings.SetPropInt
 0001:0004738C       madExcept.TIMESettings.SetPropStr
 0001:0004646C       madExcept.TIMESettings.SetRestartBtnCaption
 0001:000454A8       madExcept.TIMESettings.SetRestartBtnVisible
 0001:0004558C       madExcept.TIMESettings.SetSaveAssistant
 0001:000462C8       madExcept.TIMESettings.SetSaveBtnCaption
 0001:00045404       madExcept.TIMESettings.SetSaveBtnVisible
 0001:00045C74       madExcept.TIMESettings.SetScreenShotAppOnly
 0001:00045C48       madExcept.TIMESettings.SetScreenShotDepth
 0001:00045CA0       madExcept.TIMESettings.SetScreenShotSendAs
 0001:00045D0C       madExcept.TIMESettings.SetScreenShotZip
 0001:00045524       madExcept.TIMESettings.SetSendAssistant
 0001:00046A88       madExcept.TIMESettings.SetSendAttachMsg
 0001:000467B4       madExcept.TIMESettings.SetSendBoxTitle
 0001:00046260       madExcept.TIMESettings.SetSendBtnCaption
 0001:000453DC       madExcept.TIMESettings.SetSendBtnVisible
 0001:00046B5C       madExcept.TIMESettings.SetSendFailureMsg
 0001:00046AF0       madExcept.TIMESettings.SetSendFinalizeMsg
 0001:00045718       madExcept.TIMESettings.SetSendInBackground
 0001:000469B8       madExcept.TIMESettings.SetSendMailMsg
 0001:00046398       madExcept.TIMESettings.SetShowBtnCaption
 0001:00045454       madExcept.TIMESettings.SetShowBtnVisible
 0001:00045F74       madExcept.TIMESettings.SetShowCpuRegisters
 0001:00045FC0       madExcept.TIMESettings.SetShowDisAsm
 0001:00044EB0       madExcept.TIMESettings.SetShowPleaseWaitBox
 0001:00046014       madExcept.TIMESettings.SetShowRelativeAddrs
 0001:00046040       madExcept.TIMESettings.SetShowRelativeLines
 0001:00045F98       madExcept.TIMESettings.SetShowStackDump
 0001:000458B4       madExcept.TIMESettings.SetSmtpAccount
 0001:0004591C       madExcept.TIMESettings.SetSmtpPassword
 0001:0004588C       madExcept.TIMESettings.SetSmtpPort
 0001:00045824       madExcept.TIMESettings.SetSmtpServer
 0001:00044E84       madExcept.TIMESettings.SetSuspendThreads
 0001:000460C0       madExcept.TIMESettings.SetTitleBar
 0001:000457A4       madExcept.TIMESettings.SetUploadViaHttp
 0001:00044410       madExcept.TIMESettings.VersionVar
 0001:00058CB0       madExcept.TimeToStr
 0001:00052E84       madExcept.TrimStr9
 0001:00059924       madExcept.UndoPatches
 0001:00061BC0       madExcept.UninstallUnhandledExceptionFilter
 0001:00038DB0       madExcept.UnlistMeSettingsModule
 0001:00060994       madExcept.UnpatchAPI
 0001:000589D8       madExcept.UnregisterBugReportPlugin
 0001:0005B694       madExcept.UpdateSection
 0001:0004D014       madExcept.UploadIt
 0001:00061158       madExcept.UserWorkItemExceptFrame
 0001:00035A7C       madExcept._FpuInit
 0004:00003E08       madLinkDisAsm..1
 0001:00063BC0       madLinkDisAsm.Finalization
 0002:000001A4       madLinkDisAsm.madLinkDisAsm
 0004:00003E0C       madListHardware..1
 0001:00063CC4       madListHardware.AddDevice
 0001:00064A88       madListHardware.Finalization
 0001:0006432C       madListHardware.GetDeviceInfo
 0001:000647F4       madListHardware.GetHardwareList
 0001:00063ED4       madListHardware.GetHardwareList9x
 0001:000643C8       madListHardware.GetHardwareListNt
 0002:000001BC       madListHardware.madListHardware
 0004:00003E14       madListModules..1
 0001:00065DD0       madListModules.Finalization
 0001:0006598C       madListModules.GetModuleList
 0002:0000027C       madListModules.madListModules
 0004:00003E10       madListProcesses..1
 0001:00064B90       madListProcesses.AddItem
 0003:00003F4C       madListProcesses.CreateToolhelp32Snapshot
 0001:00064DAC       madListProcesses.EnumProcesses9x
 0001:00064F3C       madListProcesses.EnumProcessesNt
 0001:000658B4       madListProcesses.Finalization
 0003:00003F58       madListProcesses.GetGuiResources
 0003:00003F54       madListProcesses.GetModuleFileNameEx
 0001:00065498       madListProcesses.GetProcessList
 0002:0000021C       madListProcesses.madListProcesses
 0003:00003F50       madListProcesses.NtQuerySystemInformation
 0001:000652F0       madListProcesses.PriorityClassToStr
 0003:00003F44       madListProcesses.Process32First
 0003:00003F48       madListProcesses.Process32Next
 0004:00003D88       madMapFile..2
 0001:000215CC       madMapFile..TMapFile
 0001:00021D40       madMapFile..TMiniStream
 0001:00022084       madMapFile.CalcCryptPassword
 0003:000035EC       madMapFile.CMapFileStreamDescriptor
 0001:00024264       madMapFile.DecodeNameString
 0001:00026EC4       madMapFile.Finalization
 0001:000247C0       madMapFile.FindMapFile
 0001:000269DC       madMapFile.FindMapFile
 0001:000251C4       madMapFile.GetFileTime
 0001:00026E5C       madMapFile.GetLineNumber
 0001:00023740       madMapFile.GetMapFileFromResources
 0001:00026B54       madMapFile.GetMapFileInfos
 0001:00023C90       madMapFile.GetNextLine
 0001:00026C64       madMapFile.GetProcNameFromMapFile
 0001:000243B4       madMapFile.GetStr
 0001:00023340       madMapFile.ImportStr
 0001:00025250       madMapFile.IsTdsOld
 0001:00023270       madMapFile.Line_LoadFromStream
 0001:00023040       madMapFile.Line_NewItem
 0001:000230D8       madMapFile.Line_ParseStr
 0001:000263C4       madMapFile.Line_SaveToStream
 0001:000221B8       madMapFile.LoadStrFromFile
 0002:00000104       madMapFile.madMapFile
 0004:00003D8C       madMapFile.MapFileCache
 0001:00026804       madMapFile.MapFileCache_Add
 0001:000269A4       madMapFile.MapFileCache_Clear
 0001:00026880       madMapFile.MapFileCache_Get
 0001:00023B18       madMapFile.OptimizeSegments
 0001:000250C8       madMapFile.Parse
 0001:00024E38       madMapFile.ParseAll
 0001:00024E04       madMapFile.ParseLines
 0001:0002491C       madMapFile.ParseNames
 0001:00024A64       madMapFile.ParsePublics
 0001:00024970       madMapFile.ParseSegments
 0001:00024CF8       madMapFile.ParseSrcFile
 0001:00024C28       madMapFile.ParseSrcFileLines
 0001:00023D28       madMapFile.ParseStr
 0001:00025408       madMapFile.ParseTd32
 0001:00022ED4       madMapFile.Public_LoadFromStream
 0001:000229B0       madMapFile.Public_NewItem
 0001:00022CEC       madMapFile.Public_ParseStr
 0001:00026278       madMapFile.Public_SaveToStream
 0001:00024414       madMapFile.ReadJdbg
 0001:000222CC       madMapFile.ReadPackedInteger
 0001:0002230C       madMapFile.ReadPackedString
 0001:000243E0       madMapFile.ReadValue
 0001:0002284C       madMapFile.Segment_LoadFromStream
 0001:00022350       madMapFile.Segment_NewItem
 0001:0002265C       madMapFile.Segment_ParseStr
 0001:0002616C       madMapFile.Segment_SaveToStream
 0001:000241BC       madMapFile.SimpleCryptString
 0001:000237BC       madMapFile.SortLines
 0001:00024F64       madMapFile.SortPublics
 0001:000238A4       madMapFile.SortSegments
 0001:000256D0       madMapFile.TMapFile.Create
 0001:00026480       madMapFile.TMapFile.Export
 0001:00025FA0       madMapFile.TMapFile.FindAddress
 0001:00025DEC       madMapFile.TMapFile.FindLine
 0001:00025DE0       madMapFile.TMapFile.FindLine
 0001:00025DA4       madMapFile.TMapFile.FindPublic
 0001:00025A54       madMapFile.TMapFile.FindPublic
 0001:00025B4C       madMapFile.TMapFile.FindPublic
 0001:00025A18       madMapFile.TMapFile.FindSegment
 0001:00025904       madMapFile.TMapFile.FindSegment
 0001:00021F64       madMapFile.TMiniStream.Destroy
 0001:00022008       madMapFile.TMiniStream.Read
 0001:00021F98       madMapFile.TMiniStream.SetSize
 0001:00022040       madMapFile.TMiniStream.Write
 0001:0002609C       madMapFile.WritePackedInteger
 0001:000260F4       madMapFile.WritePackedString
 0001:00028334       madNVAssistant..TNVAssistant
 0001:000274FC       madNVAssistant..TNVButton
 0001:00027AD4       madNVAssistant..TNVCheckBox
 0001:000278D0       madNVAssistant..TNVEdit
 0001:00027FA8       madNVAssistant..TNVForm
 0001:00027CB4       madNVAssistant..TNVImage
 0001:0002727C       madNVAssistant..TNVItem
 0001:000276CC       madNVAssistant..TNVLabel
 0001:0002A9F4       madNVAssistant.AddItem
 0001:00028470       madNVAssistant.BooleanValue
 0001:0002B1D4       madNVAssistant.ConvertObject
 0001:0002AE38       madNVAssistant.ConvertProperty
 0001:0002DD68       madNVAssistant.CreateAssistant
 0001:0002CEE8       madNVAssistant.CreateMainButton
 0001:0002CB9C       madNVAssistant.CreateMainWindow
 0001:00028584       madNVAssistant.DecCol
 0001:000287F8       madNVAssistant.FillRect
 0001:000287B0       madNVAssistant.FillRect
 0001:0002B8A8       madNVAssistant.FindImagePos
 0001:00028678       madNVAssistant.GetFont
 0001:00028738       madNVAssistant.GetTextExtent
 0003:000035F4       madNVAssistant.HandleContactFormProc
 0003:000035F8       madNVAssistant.HandleScreenshotFormProc
 0001:0002851C       madNVAssistant.IntegerValue
 0001:00028940       madNVAssistant.LineRect
 0001:0002882C       madNVAssistant.LineRect
 0001:0002DE00       madNVAssistant.LoadAssistant
 0003:000035F0       madNVAssistant.OnAssistantCreate
 0001:0002CD6C       madNVAssistant.PrepareMainButton
 0001:0002AAFC       madNVAssistant.ReadProperty
 0001:0002CCC8       madNVAssistant.SelectFont
 0001:00028B8C       madNVAssistant.StrToOutputType
 0001:0002DA10       madNVAssistant.TNVAssistant.Create
 0001:0002DD60       madNVAssistant.TNVAssistant.GetData
 0001:0002DD00       madNVAssistant.TNVAssistant.GetException
 0001:0002DBEC       madNVAssistant.TNVAssistant.GetForm
 0001:0002DBAC       madNVAssistant.TNVAssistant.GetFormCount
 0001:0002DBB8       madNVAssistant.TNVAssistant.GetForms
 0001:0002DC8C       madNVAssistant.TNVAssistant.GetModalResult
 0001:0002DC94       madNVAssistant.TNVAssistant.GetOnAction
 0001:0002DB24       madNVAssistant.TNVAssistant.GetTitle
 0001:0002DD64       madNVAssistant.TNVAssistant.SetData
 0001:0002DD14       madNVAssistant.TNVAssistant.SetException
 0001:0002DC98       madNVAssistant.TNVAssistant.SetOnAction
 0001:0002DB38       madNVAssistant.TNVAssistant.SetTitle
 0001:0002DC9C       madNVAssistant.TNVAssistant.ShowModal
 0001:000291A4       madNVAssistant.TNVButton.Create
 0001:00029720       madNVAssistant.TNVButton.GetCaption
 0001:00029794       madNVAssistant.TNVButton.GetMinWidth
 0001:00029444       madNVAssistant.TNVButton.OwnerDraw
 0001:00029748       madNVAssistant.TNVButton.SetCaption
 0001:00029234       madNVAssistant.TNVButton.SetProperty
 0001:00029360       madNVAssistant.TNVButton.Show
 0001:0002A408       madNVAssistant.TNVCheckBox.GetCaption
 0001:0002A468       madNVAssistant.TNVCheckBox.GetChecked
 0001:0002A1B8       madNVAssistant.TNVCheckBox.OwnerDraw
 0001:0002A41C       madNVAssistant.TNVCheckBox.SetCaption
 0001:0002A470       madNVAssistant.TNVCheckBox.SetChecked
 0001:00029FC8       madNVAssistant.TNVCheckBox.SetProperty
 0001:0002A0BC       madNVAssistant.TNVCheckBox.Show
 0001:00029D40       madNVAssistant.TNVEdit.FormPaint
 0001:00029F80       madNVAssistant.TNVEdit.GetColored
 0001:00029E70       madNVAssistant.TNVEdit.GetLines
 0001:00029E74       madNVAssistant.TNVEdit.GetOptional
 0001:00029E7C       madNVAssistant.TNVEdit.GetText
 0001:00029F9C       madNVAssistant.TNVEdit.GetValid
 0001:00029E10       madNVAssistant.TNVEdit.MayEnableContinueButton
 0001:00029F88       madNVAssistant.TNVEdit.SetColored
 0001:00029AEC       madNVAssistant.TNVEdit.SetProperty
 0001:00029ED8       madNVAssistant.TNVEdit.SetText
 0001:00029FA4       madNVAssistant.TNVEdit.SetValid
 0001:00029C80       madNVAssistant.TNVEdit.Show
 0001:0002C3C0       madNVAssistant.TNVForm.CheckContinueButton
 0001:0002B608       madNVAssistant.TNVForm.Create
 0001:0002B838       madNVAssistant.TNVForm.Destroy
 0001:0002B950       madNVAssistant.TNVForm.DialogWndMethod
 0001:0002C47C       madNVAssistant.TNVForm.FindClass
 0001:0002C530       madNVAssistant.TNVForm.FindHandle
 0001:0002C644       madNVAssistant.TNVForm.FireOnAction
 0001:0002C584       madNVAssistant.TNVForm.FocusNext
 0001:0002C854       madNVAssistant.TNVForm.GetActiveControl
 0001:0002C6D4       madNVAssistant.TNVForm.GetAssistant
 0001:0002C828       madNVAssistant.TNVForm.GetCancelButton
 0001:0002C7D0       madNVAssistant.TNVForm.GetContinueButton
 0001:0002DA08       madNVAssistant.TNVForm.GetData
 0001:0002D9A8       madNVAssistant.TNVForm.GetException
 0001:0002C8B8       madNVAssistant.TNVForm.GetHandle
 0001:0002C8CC       madNVAssistant.TNVForm.GetItem
 0001:0002C7C4       madNVAssistant.TNVForm.GetItemCount
 0001:0002C764       madNVAssistant.TNVForm.GetMessage_
 0001:0002C8BC       madNVAssistant.TNVForm.GetModalResult
 0001:0002C6F0       madNVAssistant.TNVForm.GetName
 0001:0002C8C4       madNVAssistant.TNVForm.GetOnAction
 0001:0002C7FC       madNVAssistant.TNVForm.GetSkipButton
 0001:0002C8B4       madNVAssistant.TNVForm.GetTimer
 0001:0002C704       madNVAssistant.TNVForm.GetTitle
 0001:0002CA08       madNVAssistant.TNVForm.nvButton
 0001:0002CA8C       madNVAssistant.TNVForm.nvCheckBox
 0001:0002C900       madNVAssistant.TNVForm.nvEdit
 0001:0002CB10       madNVAssistant.TNVForm.nvImage
 0001:0002C984       madNVAssistant.TNVForm.nvLabel
 0001:0002C868       madNVAssistant.TNVForm.SetActiveControl
 0001:0002DA0C       madNVAssistant.TNVForm.SetData
 0001:0002D9BC       madNVAssistant.TNVForm.SetException
 0001:0002C778       madNVAssistant.TNVForm.SetMessage
 0001:0002C8C8       madNVAssistant.TNVForm.SetOnAction
 0001:0002C718       madNVAssistant.TNVForm.SetTitle
 0001:0002CFE4       madNVAssistant.TNVForm.ShowModal
 0001:0002CB94       madNVAssistant.TNVForm.Skip
 0001:0002A76C       madNVAssistant.TNVImage.FormPaint
 0001:0002A8A8       madNVAssistant.TNVImage.GetBitmap
 0001:0002A8C4       madNVAssistant.TNVImage.GetBorder
 0001:0002A8BC       madNVAssistant.TNVImage.GetClickable
 0001:0002A894       madNVAssistant.TNVImage.GetFile
 0001:0002A8D8       madNVAssistant.TNVImage.GetHeight
 0001:0002A8CC       madNVAssistant.TNVImage.GetWidth
 0001:0002A8E4       madNVAssistant.TNVImage.SetBitmap
 0001:0002A488       madNVAssistant.TNVImage.SetProperty
 0001:0002A5E0       madNVAssistant.TNVImage.Show
 0001:00028B04       madNVAssistant.TNVItem.Create
 0001:00028F8C       madNVAssistant.TNVItem.CreateWindow
 0001:00028F68       madNVAssistant.TNVItem.FormPaint
 0001:000290C8       madNVAssistant.TNVItem.GetEnabled
 0001:000290B8       madNVAssistant.TNVItem.GetHandle
 0001:000290A4       madNVAssistant.TNVItem.GetName
 0001:00029090       madNVAssistant.TNVItem.GetOutputName
 0001:00029088       madNVAssistant.TNVItem.GetOutputType
 0001:000290C4       madNVAssistant.TNVItem.GetSpacing
 0001:000290BC       madNVAssistant.TNVItem.GetTabStop
 0001:00028B88       madNVAssistant.TNVItem.GetTNVItem
 0001:00028F88       madNVAssistant.TNVItem.MayEnableContinueButton
 0001:00028F6C       madNVAssistant.TNVItem.OwnerDraw
 0001:00029144       madNVAssistant.TNVItem.SetEnabled
 0001:0002916C       madNVAssistant.TNVItem.SetFocus
 0001:00029060       madNVAssistant.TNVItem.SetForceDisabled
 0001:000290F8       madNVAssistant.TNVItem.SetOutputName
 0001:000290D0       madNVAssistant.TNVItem.SetOutputType
 0001:00028C08       madNVAssistant.TNVItem.SetProperty
 0001:00028D24       madNVAssistant.TNVItem.Show
 0001:000298D8       madNVAssistant.TNVLabel.CalcRect
 0001:00029A78       madNVAssistant.TNVLabel.GetCaption
 0001:0002996C       madNVAssistant.TNVLabel.IsHeadLabel
 0001:00029AA0       madNVAssistant.TNVLabel.SetCaption
 0001:00029798       madNVAssistant.TNVLabel.SetProperty
 0001:0002982C       madNVAssistant.TNVLabel.Show
 0001:00028994       madNVAssistant.WrText
 0001:000144FC       madNVBitmap..TINVBitmap
 0001:00014CD8       madNVBitmap.AddPngPart
 0001:00014B78       madNVBitmap.Adler32
 0001:00015304       madNVBitmap.Bottom
 0001:00016D98       madNVBitmap.CalculateArea
 0001:00016EAC       madNVBitmap.CalculateRegion
 0001:00014968       madNVBitmap.CloseBmp
 0001:00015E30       madNVBitmap.ColorLookup
 0001:00014BF0       madNVBitmap.CompressBitmap
 0001:000148AC       madNVBitmap.CreateBmp
 0001:00014E0C       madNVBitmap.CreatePng
 0001:00015938       madNVBitmap.Cut
 0001:00016F40       madNVBitmap.DcToBmp
 0001:00016C5C       madNVBitmap.DrawCursorOnDC
 0001:00015AE4       madNVBitmap.FindOptimalPalette
 0001:000168B4       madNVBitmap.FreeContributorList
 0001:00016558       madNVBitmap.GetContributorList
 0001:00015EE8       madNVBitmap.GetGrayPal
 0001:00014AE0       madNVBitmap.GetPngHeader
 0001:00015F90       madNVBitmap.GrayLookup
 0001:00014F48       madNVBitmap.Hist3d
 0001:00015DF4       madNVBitmap.InitColorLookup
 0001:00015F54       madNVBitmap.InitGrayLookup
 0001:00017148       madNVBitmap.LoadBitmap
 0001:0001503C       madNVBitmap.M3d
 0001:0001574C       madNVBitmap.Maximize
 0001:000168DC       madNVBitmap.MitchellResampling32
 0001:00017244       madNVBitmap.ScreenShot
 0001:00014AB8       madNVBitmap.SwapDword
 0001:00014A60       madNVBitmap.TINVBitmap.AsBmpStr
 0001:00015FF4       madNVBitmap.TINVBitmap.AsPngStr
 0001:00014984       madNVBitmap.TINVBitmap.Create
 0001:000149E8       madNVBitmap.TINVBitmap.Destroy
 0001:00014A24       madNVBitmap.TINVBitmap.Draw
 0001:00014A20       madNVBitmap.TINVBitmap.GetHeight
 0001:00014A1C       madNVBitmap.TINVBitmap.GetWidth
 0001:00016390       madNVBitmap.TINVBitmap.SaveBmp
 0001:0001646C       madNVBitmap.TINVBitmap.SavePng
 0001:00016B94       madNVBitmap.TINVBitmap.Zoom
 0001:00015454       madNVBitmap.Top
 0001:000155B4       madNVBitmap.Var_
 0001:00015238       madNVBitmap.Vol
 0001:00016E3C       madNVBitmap.WindowToRgn
 0001:0000B084       madNVPrgrAlert..TIProgressAlert
 0001:0000B9E4       madNVPrgrAlert.DrawGraphic
 0001:0000C2D8       madNVPrgrAlert.NewProgressAlert
 0001:0000BC40       madNVPrgrAlert.ProgressAlertWndProc
 0001:0000B74C       madNVPrgrAlert.TIProgressAlert.AddArea
 0001:0000B83C       madNVPrgrAlert.TIProgressAlert.AreaDone
 0001:0000B814       madNVPrgrAlert.TIProgressAlert.ClearAreas
 0001:0000C258       madNVPrgrAlert.TIProgressAlert.Close
 0001:0000B5D4       madNVPrgrAlert.TIProgressAlert.Create
 0001:0000B674       madNVPrgrAlert.TIProgressAlert.Destroy
 0001:0000B6DC       madNVPrgrAlert.TIProgressAlert.GetCurrentArea
 0001:0000B6D8       madNVPrgrAlert.TIProgressAlert.GetPosition
 0001:0000B6C4       madNVPrgrAlert.TIProgressAlert.GetTitle
 0001:0000B8C0       madNVPrgrAlert.TIProgressAlert.ProcessMessages
 0001:0000B848       madNVPrgrAlert.TIProgressAlert.SetCurrentArea
 0001:0000B908       madNVPrgrAlert.TIProgressAlert.SetPosition
 0001:0000B6E0       madNVPrgrAlert.TIProgressAlert.SetTitle
 0001:0000BD30       madNVPrgrAlert.TIProgressAlert.Show
 0004:00003D90       madStackTrace..2
 0001:0002E0F0       madStackTrace..BcbTermination
 0001:0002E604       madStackTrace.AddFunction
 0001:0002F6DC       madStackTrace.AddLink
 0001:0003108C       madStackTrace.AddMinDebugInfoItem
 0001:0002E308       madStackTrace.AddModule
 0001:00032848       madStackTrace.AddStackItem
 0001:0002FA78       madStackTrace.AddStackItem
 0001:0002E4D8       madStackTrace.ApproveFunction
 0001:0002E514       madStackTrace.ApproveFunction
 0001:0002EB8C       madStackTrace.CheckFunctionAreas
 0001:00030268       madStackTrace.CollectPossibleStackItems
 0001:00032A2C       madStackTrace.CollectPossibleStackItems
 0001:0003160C       madStackTrace.ComposeResult
 0001:0002F924       madStackTrace.CouldBeAfterCall
 0001:000327A0       madStackTrace.CouldBeAfterCall
 0001:0002F79C       madStackTrace.DeleteLink
 0003:000035FC       madStackTrace.DispatchMessageA
 0001:00030C6C       madStackTrace.EvaluateLinks
 0001:000311B4       madStackTrace.FillFinalOutput
 0001:0003082C       madStackTrace.FillUpLink
 0001:00032BE8       madStackTrace.Finalization
 0001:0002F7EC       madStackTrace.FindAndDeleteLink
 0001:000307C8       madStackTrace.FindApprovedDownLink
 0001:0002EC00       madStackTrace.FindCodeAddrAndTarget
 0001:0002F9CC       madStackTrace.FindNearestExport
 0001:00030518       madStackTrace.FindValidStackArr
 0004:00003DA0       madStackTrace.functionCache
 0004:00003D9C       madStackTrace.functionCount
 0001:00032100       madStackTrace.GetEbp
 0001:0002E56C       madStackTrace.GetFunctionName
 0001:0002F6D0       madStackTrace.GetStackAddr
 0001:00032AF0       madStackTrace.GetStackAddr
 0001:00032AF4       madStackTrace.GetStackTop
 0001:0002F6D4       madStackTrace.GetStackTop
 0001:0002F328       madStackTrace.GetTryFinallyExitAddr
 0001:0002F33C       madStackTrace.GetTryFinallyExitRetAddr
 0001:00030A7C       madStackTrace.InDeepCheck
 0001:0003291C       madStackTrace.InitEbpFrames
 0001:00030184       madStackTrace.InitEbpFrames
 0001:0002F224       madStackTrace.InternalError
 0001:00032014       madStackTrace.InternalError2
 0001:00030710       madStackTrace.InvalidateFunction
 0001:0002F868       madStackTrace.InvalidateStackItem
 0002:0000014C       madStackTrace.madStackTrace
 0004:00003D98       madStackTrace.moduleCache
 0004:00003D94       madStackTrace.moduleCount
 0001:00032AFC       madStackTrace.PrepareStackTrace
 0001:00030F24       madStackTrace.RealizeLinks
 0001:00030FA0       madStackTrace.RealizeOptimalLinkChain
 0001:00030554       madStackTrace.RemoveRecursiveArea
 0001:000306AC       madStackTrace.RemoveRecursiveAreas
 0001:0002EF60       madStackTrace.StackAddrToStr
 0001:00032104       madStackTrace.StackTrace
 0004:00002C48       madStrings..1
 0001:0000F584       madStrings.AnsiToWideEx
 0001:0000CF0C       madStrings.BooleanToChar
 0003:00000C18       madStrings.CNetMsg
 0003:00000A10       madStrings.CNtDll
 0001:0000D19C       madStrings.CompareText
 0001:0000CCE8       madStrings.CopyR
 0003:00000C1C       madStrings.CRtlNtStatusToDosError
 0003:00000C20       madStrings.CWinErrNr
 0001:0000F544       madStrings.DecryptStr
 0001:0000EFBC       madStrings.DecSep
 0001:0000F33C       madStrings.ErrorCodeToStr
 0003:00000C14       madStrings.FDecSep
 0001:0000E1E4       madStrings.FillStr
 0001:0000E238       madStrings.FillStr
 0001:0000F6C0       madStrings.Finalization
 0001:0000E98C       madStrings.FormatSubStrs
 0001:0000D6C8       madStrings.GetPCharLen
 0001:0000D470       madStrings.GetPCharLen
 0001:0000E50C       madStrings.IntToHex
 0001:0000E448       madStrings.IntToHex
 0001:0000E84C       madStrings.IntToHexEx
 0001:0000E60C       madStrings.IntToHexEx
 0001:0000E780       madStrings.IntToHexEx
 0001:0000E350       madStrings.IntToStr
 0001:0000E28C       madStrings.IntToStr
 0001:0000E5B8       madStrings.IntToStrEx
 0001:0000E72C       madStrings.IntToStrEx
 0001:0000E6D4       madStrings.IntToStrEx
 0001:0000D034       madStrings.IsTextEqual
 0001:0000CF50       madStrings.IsTextEqual
 0001:0000CCCC       madStrings.Keep
 0001:0000C6FC       madStrings.KillChar
 0001:0000C77C       madStrings.KillChars
 0001:0000CE48       madStrings.LowChar
 0003:00000A14       madStrings.lowCharTable
 0001:0000CE54       madStrings.LowStr
 0002:000000C4       madStrings.madStrings
 0001:0000DF10       madStrings.PosChars
 0001:0000D488       madStrings.PosPChar
 0001:0000D6E4       madStrings.PosPChar
 0001:0000D298       madStrings.PosStr
 0001:0000D9E8       madStrings.PosStrIs1
 0001:0000DB38       madStrings.PosStrIs1
 0001:0000D384       madStrings.PosText
 0001:0000DDCC       madStrings.PosTextIs1
 0001:0000DC80       madStrings.PosTextIs1
 0001:0000C814       madStrings.Replace
 0001:0000CC3C       madStrings.ReplaceStr
 0001:0000CC54       madStrings.ReplaceText
 0001:0000CC6C       madStrings.RetDelete
 0001:0000CC9C       madStrings.RetDelete
 0001:0000C684       madStrings.RetTrimStr
 0001:0000EFFC       madStrings.SizeToStr
 0001:0000E914       madStrings.StrToIntEx
 0001:0000EC24       madStrings.SubStr
 0001:0000EB60       madStrings.SubStrCount
 0001:0000ECE4       madStrings.SubStrExists
 0001:0000EE50       madStrings.SubTextExists
 0001:0000C614       madStrings.TrimStr
 0001:0000CD74       madStrings.UpChar
 0001:0000CD90       madStrings.UpStr
 0003:00000B14       madStrings.valTable
 0001:0000F670       madStrings.WideToAnsiEx
 0001:0000DFFC       madStrings._FillStr
 0001:0000E0D4       madStrings._FillStr
 0004:00003D5C       madTools..1
 0001:000186F8       madTools.AddMsgHandler
 0001:00018558       madTools.AddMsgHandler_
 0003:00001D2C       madTools.CheckProcAddress
 0003:00001D48       madTools.CMadToolsMsgHandlerWindow
 0003:00001CE8       madTools.COsDescr
 0001:000188FC       madTools.DelMsgHandler
 0001:00018704       madTools.DelMsgHandler_
 0001:00018AC4       madTools.ExportToFunc
 0001:00017E90       madTools.FileVersionToStr
 0001:000196A4       madTools.Finalization
 0001:00018908       madTools.FinalMsgHandler
 0001:00018920       madTools.FindModule
 0003:00001D3C       madTools.FreeLibrary16
 0001:000195B0       madTools.GetExceptionObject
 0001:00017CA0       madTools.GetFileVersion
 0001:00017D7C       madTools.GetFileVersion
 0001:00017B74       madTools.GetFreeSystemResources
 0001:00018A88       madTools.GetImageDataDirectory
 0001:00018ABC       madTools.GetImageExportDirectory
 0001:00018A2C       madTools.GetImageNtHeaders
 0001:00018CF4       madTools.GetImageProcAddress
 0001:00018EE4       madTools.GetImageProcAddress
 0001:00018F48       madTools.GetImageProcName
 0003:00001D40       madTools.GetProcAddress16
 0001:00018C04       madTools.GetSizeOfImage
 0001:00019680       madTools.InitTryExceptFinally
 0003:00001D38       madTools.LoadLibrary16
 0002:000000CC       madTools.madTools
 0001:00017F88       madTools.MethodToProcedure
 0003:00001D44       madTools.MsgHandlerMutex
 0001:000182AC       madTools.MsgHandlerWindow
 0001:000180E0       madTools.MsgHandlerWindowProc
 0004:00003D80       madTools.MsgHandlerWindows
 0001:00018C18       madTools.NeedModuleFileMap
 0003:00001D30       madTools.NeedModuleFileMapEx
 0001:000176EC       madTools.OS
 0003:00001D34       madTools.osReady
 0004:00003D60       madTools.os_
 0001:00019098       madTools.ResToStr
 0001:00019594       madTools.TickDif
 0001:000190F0       madTools.Unmangle
 0001:00018B9C       madTools.VirtualToRaw
 0001:0000C498       madTypes..MadException
 0001:0000C5C0       madTypes.MadException.Create
 0003:00001490       madZip.BaseDistance
 0003:0000141C       madZip.BaseLength
 0003:00001640       madZip.BitLengthOrder
 0003:000018C0       madZip.BitOrder
 0001:0000FF2C       madZip.BitReverse
 0001:000104E8       madZip.BitsWindup
 0001:0001092C       madZip.BuildBitLengthTree
 0001:0001238C       madZip.BuildHuffmanTables
 0001:0001029C       madZip.BuildTree
 0001:000115D8       madZip.CheckDstMap
 0001:0000F9CC       madZip.CheckDstMap
 0001:0000F7C4       madZip.CheckSrcMap
 0001:00011394       madZip.CheckSrcMap
 0001:00013974       madZip.Compress
 0001:0001390C       madZip.Compress
 0001:00010A90       madZip.CompressBlock
 0001:00010E30       madZip.CompressEx
 0001:000109A0       madZip.CopyBlock
 0003:00001804       madZip.CopyExtra
 0003:00001694       madZip.CopyLengths
 0003:00001710       madZip.CopyLiteralExtra
 0003:0000178C       madZip.CopyOffsets
 0003:000018E8       madZip.crc32Tab
 0003:0000111C       madZip.DistanceCode
 0003:000015F4       madZip.ExtraBitLengthBits
 0003:0000157C       madZip.ExtraDistanceBits
 0003:00001508       madZip.ExtraLengthBits
 0001:0000FCD8       madZip.FillWindow
 0003:00001690       madZip.FixedBuild
 0004:00003D50       madZip.FixedDistanceBits
 0004:00003D58       madZip.FixedDistanceTable
 0004:00003D4C       madZip.FixedLiteralBits
 0004:00003D54       madZip.FixedLiteralTable
 0004:00002C4C       madZip.FixedTablesMemory
 0001:00010D18       madZip.FlushBlockOnly
 0001:0000F914       madZip.FlushDstFile
 0001:000114E8       madZip.FlushDstFile
 0001:0000FEB0       madZip.FlushPending
 0001:000100B0       madZip.GenerateBitLengths
 0001:0000FF50       madZip.GenerateCodes
 0001:00013624       madZip.InflateBlockReset
 0001:00012C18       madZip.InflateBlocks
 0001:00013664       madZip.InflateBlocksNew
 0001:00011C58       madZip.InflateCodes
 0001:00011B8C       madZip.InflateCodesNew
 0001:000118DC       madZip.InflateFast
 0001:00011794       madZip.InflateFlush
 0003:0000187C       madZip.InflateMask
 0001:000127E4       madZip.InflateTreesBits
 0001:00012888       madZip.InflateTreesDynamic
 0001:000129BC       madZip.InflateTreesFixed
 0001:0000FE44       madZip.InitializeBlock
 0001:00010DEC       madZip.InsertString
 0003:0000131C       madZip.LengthCode
 0001:0000FAE0       madZip.LongestMatch
 0001:0000F7AC       madZip.MapViewOfFile2
 0001:0000F718       madZip.Min
 0001:0000FC64       madZip.ReadBuffer
 0001:0000FFBC       madZip.RestoreHeap
 0001:00010824       madZip.ScanTree
 0001:0001077C       madZip.SendAllTrees
 0001:0001054C       madZip.SendBits
 0001:000105DC       madZip.SendTree
 0001:0000F758       madZip.SetFilePointer2
 0003:0000167C       madZip.StaticBitLengthDescriptor
 0003:000010A4       madZip.StaticDescriptorTree
 0003:00001668       madZip.StaticDistanceDescriptor
 0003:00001654       madZip.StaticLiteralDescriptor
 0003:00000C24       madZip.StaticLiteralTree
 0001:000116BC       madZip.Store
 0001:00010BE0       madZip.TreeFlushBlock
 0001:00010A3C       madZip.TreeStroredBlock
 0001:00010D5C       madZip.TreeTally
 0001:00013A94       madZip.Uncompress
 0001:00013940       madZip.Uncompress
 0001:00013720       madZip.UncompressEx
 0001:00013B78       madZip.UpdateCrc32
 0001:00011818       madZip.UpdatePointers
 0001:00011BC0       madZip.UpdatePointers
 0001:00012B84       madZip.UpdatePointers
 0001:00013DC4       madZip.Zip
 0001:00032FE0       ShellAPI.ShellExecute
 0001:00032FE8       ShellAPI.ShellExecuteA
 0001:00032FF0       ShellAPI.ShellExecuteExA
 0001:000660B8       StrUtils.PosEx
 0001:00009B04       SysInit.@GetTls
 0001:00009B50       SysInit.@InitExe
 0001:00009AAC       SysInit.AllocTlsBuffer
 0001:00009A8C       SysInit.GetModuleHandle
 0001:00009AB8       SysInit.GetTlsSize
 0004:00002C38       SysInit.HInstance
 0001:00009B44       SysInit.InitializeModule
 0001:00009AC0       SysInit.InitThreadTLS
 0001:00009A94       SysInit.LocalAlloc
 0003:000009E8       SysInit.Module
 0004:00002C35       SysInit.ModuleIsCpp
 0004:00002C34       SysInit.ModuleIsLib
 0003:000009E4       SysInit.PtrToNil
 0004:00002C3C       SysInit.tlsBuffer
 0001:00009A9C       SysInit.TlsGetValue
 0003:000009E0       SysInit.TlsIndex
 0005:000000EC       SysInit.TlsLast
 0001:00009AA4       SysInit.TlsSetValue
 0004:00002C1C       System...
 0001:00009634       System...
 0003:000009D4       System...
 0004:000008D8       System..8
 0001:00000C74       System..TInterfacedObject
 0001:0000040C       System..TObject
 0001:00003598       System.@AbstractError
 0001:000046A8       System.@AfterConstruction
 0001:00003930       System.@AStrCmp
 0001:000046F8       System.@BeforeDestruction
 0001:00004010       System.@BoundErr
 0001:000043C0       System.@CallDynaInst
 0001:00004650       System.@ClassCreate
 0001:000046A0       System.@ClassDestroy
 0001:000038D8       System.@Close
 0001:00007220       System.@CopyArray
 0001:000070E0       System.@CopyRecord
 0001:0000735C       System.@DispCallByIDError
 0001:0000734C       System.@Dispose
 0001:00004D7C       System.@DoneExcept
 0001:00007B7C       System.@DynArrayAddRef
 0001:00007B54       System.@DynArrayAsg
 0001:00007B18       System.@DynArrayClear
 0001:00007A04       System.@DynArrayCopy
 0001:00007A24       System.@DynArrayCopyRange
 0001:00007838       System.@DynArrayHigh
 0001:00007830       System.@DynArrayLength
 0001:000079F8       System.@DynArraySetLength
 0001:000056B8       System.@EnsureAnsiString
 0001:00005688       System.@EnsureUnicodeString
 0001:00004E64       System.@ExceptionHandler
 0001:000039A0       System.@FillChar
 0001:000070BC       System.@Finalize
 0001:00006FAC       System.@FinalizeArray
 0001:00006F5C       System.@FinalizeRecord
 0001:000038CC       System.@Flush
 0001:00004004       System.@FpuInit
 0001:000031DC       System.@FreeMem
 0001:000031C0       System.@GetMem
 0001:000053DC       System.@Halt
 0001:000052D0       System.@Halt0
 0001:00004860       System.@HandleAnyException
 0001:00004BF4       System.@HandleAutoException
 0001:00004B14       System.@HandleFinally
 0001:00004BBC       System.@HandleFinallyInternal
 0001:0000498C       System.@HandleOnException
 0001:000099F0       System.@InitDelayHelp
 0001:00006F50       System.@Initialize
 0001:00006EB8       System.@InitializeArray
 0001:00006E84       System.@InitializeRecord
 0001:00005164       System.@InitImports
 0001:00005120       System.@InitResStringImports
 0001:000056A8       System.@InternalLStrFromUStr
 0001:00005678       System.@InternalUStrFromLStr
 0001:00008EE8       System.@IntfAddRef
 0001:00008EB8       System.@IntfCast
 0001:00008E74       System.@IntfClear
 0001:00008E8C       System.@IntfCopy
 0001:00004018       System.@IntOver
 0001:0000436C       System.@IsClass
 0001:00005BEC       System.@LStrAddRef
 0001:000054B0       System.@LStrArrayClr
 0001:000054E0       System.@LStrAsg
 0001:00005884       System.@LStrCat
 0001:0000594C       System.@LStrCat3
 0001:00005A3C       System.@LStrCatN
 0001:0000548C       System.@LStrClr
 0001:00005C7C       System.@LStrCopy
 0001:00005CE0       System.@LStrDelete
 0001:00005B78       System.@LStrEqual
 0001:000057F4       System.@LStrFromArray
 0001:00005760       System.@LStrFromChar
 0001:00005770       System.@LStrFromPChar
 0001:000055C4       System.@LStrFromPCharLen
 0001:000057A4       System.@LStrFromPWChar
 0001:000056DC       System.@LStrFromPWCharLen
 0001:000057E4       System.@LStrFromString
 0001:00006570       System.@LStrFromUStr
 0001:00005814       System.@LStrFromWStr
 0001:00005D2C       System.@LStrInsert
 0001:0000553C       System.@LStrLAsg
 0001:00005850       System.@LStrLen
 0001:00005EE0       System.@LStrSetLength
 0001:00005BFC       System.@LStrToPChar
 0001:0000582C       System.@LStrToString
 0001:0000960C       System.@memcpy
 0001:00009620       System.@memset
 0001:00007338       System.@New
 0001:00005578       System.@NewAnsiString
 0001:00006C08       System.@NewUnicodeString
 0001:00005FE4       System.@NewWideString
 0001:0000585C       System.@PCharLen
 0001:00003D20       System.@Pow10
 0001:00004D28       System.@RaiseAgain
 0001:00004CB8       System.@RaiseExcept
 0001:000031F4       System.@ReallocMem
 0001:00003610       System.@RewritText
 0001:0000358C       System.@ROUND
 0001:000053E8       System.@RunError
 0001:00003CD8       System.@SetElem
 0001:00003D08       System.@SetSub
 0001:00003CFC       System.@SetUnion
 0001:000099FF       System.@ShutdownDelayHelp
 0001:00005020       System.@StartExe
 0001:00001514       System.@strlen
 0001:00004DAC       System.@TryFinallyExit
 0001:00005C74       System.@UniqueStringA
 0001:00006C00       System.@UniqueStringU
 0001:00006314       System.@UStrAddRef
 0001:00006324       System.@UStrArrayClr
 0001:0000632C       System.@UStrAsg
 0001:00006734       System.@UStrCat
 0001:000067F4       System.@UStrCat3
 0001:000068D8       System.@UStrCatN
 0001:0000631C       System.@UStrClr
 0001:00006A60       System.@UStrCopy
 0001:00006B30       System.@UStrDelete
 0001:000069F8       System.@UStrEqual
 0001:00006514       System.@UStrFromArray
 0001:00006548       System.@UStrFromLStr
 0001:000064A8       System.@UStrFromPChar
 0001:00006458       System.@UStrFromPCharLen
 0001:000064D8       System.@UStrFromPWChar
 0001:00006468       System.@UStrFromPWCharLen
 0001:0000652C       System.@UStrFromWArray
 0001:00006498       System.@UStrFromWChar
 0001:00006594       System.@UStrFromWStr
 0001:00006380       System.@UStrLAsg
 0001:00006690       System.@UStrLen
 0001:0000669C       System.@UStrSetLength
 0001:000063B8       System.@UStrToPWChar
 0001:000065D0       System.@UStrToString
 0001:000074B8       System.@ValInt64
 0001:00003A3C       System.@ValLong
 0001:00006F94       System.@VarClr
 0001:000070C8       System.@VarCopy
 0001:00005F78       System.@Write0LString
 0001:00003B84       System.@WriteBytes
 0001:00003C54       System.@WriteLn
 0001:00005F80       System.@WriteLString
 0001:00003BD8       System.@WriteSpaces
 0001:00006024       System.@WStrArrayClr
 0001:00006048       System.@WStrAsg
 0001:0000600C       System.@WStrClr
 0001:000061E8       System.@WStrCmp
 0001:00006274       System.@WStrCopy
 0001:0000626C       System.@WStrEqual
 0001:000061AC       System.@WStrFromLStr
 0001:00006140       System.@WStrFromPChar
 0001:0000610C       System.@WStrFromPCharLen
 0001:00006170       System.@WStrFromPWChar
 0001:0000611C       System.@WStrFromPWCharLen
 0001:000065A8       System.@WStrFromUStr
 0001:000062C0       System.@WStrSetLength
 0001:000061D8       System.@WStrToPWChar
 0001:00003CA8       System.@_CLenToPasStr
 0001:00003C9C       System.@_CToPasStr
 0001:0000971A       System.@_delayLoadHelper
 0001:00009986       System.@_FUnloadDelayLoadedDLL
 0001:00003308       System.@_IOTest
 0001:00007388       System.@_lldiv
 0001:0000741C       System.@_llmod
 0001:00007364       System.@_llmul
 0001:00007498       System.@_llshl
 0003:000009D8       System.@__pfnDliFailureHook
 0003:000009DC       System.@__pfnDliNotifyHook
 0004:00000030       System.AbstractErrorProc
 0001:00003264       System.AcquireExceptionObject
 0001:00008D04       System.AddModuleUnloadProc
 0001:00008D14       System.AddModuleUnloadProc
 0001:00001A60       System.AllocateLargeBlock
 0001:000031A8       System.AllocMem
 0001:000019A0       System.AllocNewSequentialFeedMediumPool
 0004:000008DC       System.AllocSize2SmallBlockTypeIndX4
 0003:0000006C       System.AnsiStringBlockMessage
 0001:00002750       System.AppendClassNameToBuffer
 0001:00002738       System.AppendStringToBuffer
 0004:00000028       System.AssertErrorProc
 0001:0000542C       System.BeginThread
 0001:00001934       System.BinMediumSequentialFeedRemainder
 0001:00002F58       System.BuildBlockTypeLookupTable
 0003:00000064       System.BytesMessage
 0004:00002B6C       System.CachedLangID
 0004:00002B70       System.CachedLanguageNames
 0001:0000261C       System.CardinalToStrBuf
 0001:000055FC       System.CharFromWChar
 0001:00005628       System.CharFromWChar
 0001:00001464       System.CharNext
 0001:000047DC       System.CheckJmp
 0001:000029B4       System.CheckSmallBlockPoolForLeaks
 0001:000013E4       System.CloseHandle
 0004:00000044       System.CmdLine
 0004:00000040       System.CmdShow
 0001:00001474       System.CompareString
 0001:0000146C       System.CompareStringW
 0001:00007FC4       System.ConvertResToUILanguages
 0001:00007840       System.CopyArray
 0003:00000054       System.Copyright
 0004:00000050       System.CPUCount
 0001:000013EC       System.CreateFile
 0001:0000147C       System.CreateThread
 0004:00002B54       System.CrSec
 0003:00000028       System.DebugHook
 0003:00000020       System.Default8087CW
 0004:000008C8       System.DefaultSystemCodePage
 0003:00000034       System.DefaultTextLineBreakStyle
 0004:000008CC       System.DefaultUnicodeCodePage
 0001:00007B88       System.DelayLoadResourceModule
 0001:0000140C       System.DeleteCriticalSection
 0003:000007B8       System.dig
 0004:00000000       System.DispCallByIDProc
 0004:00002B14       System.DLLThreadContext
 0001:00007858       System.DynArrayClear
 0001:00007860       System.DynArraySetLength
 0003:000007BC       System.EmptyStringW
 0001:00005660       System.EnsureAnsiString
 0001:00005670       System.EnsureUnicodeString
 0001:000013FC       System.EnterCriticalSection
 0001:00008CD8       System.EnumResourceModules
 0001:00008CD0       System.EnumResourceModules
 0003:00000790       System.errCaption
 0001:000032FC       System.Error
 0003:00000004       System.ErrorAddr
 0001:000032B0       System.ErrorAt
 0004:00000008       System.ErrorProc
 0004:000005F4       System.ErrOutput
 0004:0000000C       System.ExceptClsProc
 0004:00000020       System.ExceptionAcquired
 0004:00000024       System.ExceptionClass
 0001:00003244       System.ExceptObject
 0004:00000010       System.ExceptObjProc
 0004:00000004       System.ExceptProc
 0003:00000000       System.ExitCode
 0001:00005214       System.ExitDll
 0004:00000048       System.ExitProc
 0001:00001484       System.ExitProcess
 0004:0000002C       System.ExitProcessProc
 0004:00002AD8       System.ExpectedMemoryLeaks
 0004:00002ADC       System.ExpectedMemoryLeaksListLocked
 0003:00000008       System.FileMode
 0001:00003658       System.FileNOPProc
 0001:00009A18       System.Finalization
 0001:00007850       System.FinalizeArray
 0001:00007F18       System.FinalizeLocaleDate
 0001:00003154       System.FinalizeMemoryManager
 0001:00004F4C       System.FinalizeUnits
 0001:00008450       System.FindBS
 0001:00001494       System.FindClose
 0001:00004390       System.FindDynaMethod
 0001:0000149C       System.FindFirstFile
 0001:00007BD0       System.FindResourceHInstance
 0001:000038C0       System.Flush
 0001:00003D18       System.FPower10
 0001:000030C4       System.FreeAllMemory
 0001:00001AC4       System.FreeLargeBlock
 0001:000014A4       System.FreeLibrary
 0001:00008F84       System.FreeMemory
 0001:00003584       System.Get8087CW
 0001:00009594       System.GetACP
 0001:0000157C       System.GetCmdShow
 0001:000014AC       System.GetCommandLine
 0001:0000959C       System.GetCPUCount
 0001:00001564       System.GetCurrentThreadId
 0001:0000141C       System.GetFileSize
 0001:00001414       System.GetFileType
 0001:000025E0       System.GetFirstAndLastSmallBlockInPool
 0001:000025A0       System.GetFirstMediumBlockInPool
 0001:000014B4       System.GetLastError
 0001:000014BC       System.GetLocaleInfo
 0001:00008670       System.GetLocaleOverride
 0001:000014CC       System.GetModuleFileName
 0001:000014D4       System.GetModuleHandle
 0001:00002880       System.GetObjectClass
 0001:00003458       System.GetParamStr
 0001:000080B4       System.GetPreferredLangForOldOS
 0001:000014DC       System.GetProcAddress
 0001:00008B20       System.GetResourceModuleName
 0001:000014E4       System.GetStartupInfo
 0001:00001424       System.GetStdHandle
 0001:000014EC       System.GetSystemDefaultUILanguage
 0001:00001574       System.GetSystemInfo
 0004:00002B44       System.GetThreadPreferredUILanguages
 0004:00002B48       System.GetThreadUILanguage
 0001:0000824C       System.GetUILanguages
 0001:000014C4       System.GetUserDefaultUILanguage
 0001:0000156C       System.GetVersion
 0003:00000024       System.HeapAllocFlags
 0004:00002AE4       System.InitContext
 0001:000013F4       System.InitializeCriticalSection
 0001:00007E34       System.InitializeLocaleData
 0001:00002F9C       System.InitializeMemoryManager
 0001:00004FB4       System.InitUnits
 0005:00000004       System.InOutRes
 0004:00000054       System.Input
 0001:000018D4       System.InsertMediumBlockIntoBin
 0001:000013D8       System.InterlockedDecrement
 0001:000013CC       System.InterlockedIncrement
 0001:00003698       System.InternalClose
 0001:00003878       System.InternalFlush
 0001:00002800       System.InternalIsValidClass
 0001:00005C14       System.InternalUniqueString
 0001:00006BA4       System.InternalUniqueStringU
 0001:000063C4       System.InternalUStrFromPCharLen
 0001:00006070       System.InternalWStrFromPCharLen
 0001:000041DC       System.InvokeImplGetter
 0001:00003338       System.IOResult
 0004:0000004C       System.IsConsole
 0004:0000003C       System.IsLibrary
 0004:0000004D       System.IsMultiThread
 0001:000014F4       System.IsValidLocale
 0001:00002784       System.IsValidVMTAddress
 0003:0000002C       System.JITEnable
 0004:00002AC8       System.LargeBlocksCircularList
 0004:00002AC4       System.LargeBlocksLocked
 0003:00000060       System.LargeLeakDetail
 0001:00007F24       System.LastHyphenPos
 0004:00000A38       System.LastSequentiallyFedMediumBlock
 0003:00000074       System.LeakMessageFooter
 0003:00000058       System.LeakMessageHeader
 0003:00000078       System.LeakMessageTitle
 0001:00001404       System.LeaveCriticalSection
 0003:0000003C       System.LibModuleList
 0001:00008AC4       System.Load3LettersModule
 0001:00008A14       System.LoadLanguageList
 0001:000095FC       System.LoadLibraryA
 0001:000014FC       System.LoadLibraryEx
 0001:00008910       System.LoadResourceModule
 0001:00009528       System.LoadResString
 0001:00005068       System.LoadResStringA
 0001:0000510C       System.LoadResStringU
 0001:000050BC       System.LoadResStringW
 0001:00001504       System.LoadString
 0001:000095EC       System.LocalAlloc
 0003:000007CC       System.LocaleTable
 0001:000095F4       System.LocalFree
 0001:00001708       System.LockCmpxchg
 0001:000028A8       System.LockExpectedMemoryLeaksList
 0001:00001A18       System.LockLargeBlocks
 0001:00009604       System.lstrcmpiA
 0001:0000150C       System.lstrcpyn
 0004:00000034       System.MainInstance
 0004:00000038       System.MainThreadID
 0001:000051A8       System.MakeErrorMessage
 0004:00002AE0       System.MappingObjectHandle
 0001:00004DC4       System.MapToRunError
 0004:00000A44       System.MediumBlockBinBitmaps
 0004:00000A40       System.MediumBlockBinGroupBitmap
 0004:00000AC4       System.MediumBlockBins
 0004:00000A24       System.MediumBlockPoolsCircularList
 0004:00000A34       System.MediumBlocksLocked
 0004:00000A3C       System.MediumSequentialFeedBytesLeft
 0003:0000075C       System.MemoryManager
 0001:0000148C       System.MessageBoxA
 0004:00000A22       System.MinimumBlockAlignment
 0003:00000040       System.ModuleUnloadList
 0004:000008C4       System.MonitorSupport
 0001:00003358       System.Move
 0001:00001710       System.Move12
 0001:00001724       System.Move20
 0001:00001744       System.Move28
 0001:00001770       System.Move36
 0001:00001790       System.Move44
 0001:000017B4       System.Move52
 0001:000017E0       System.Move60
 0001:00001810       System.Move68
 0001:00001848       System.MoveX16L4
 0001:00001878       System.MoveX8L4
 0001:0000151C       System.MultiByteToWideChar
 0004:000008D5       System.NeverSleepOnMMThreadContention
 0001:0000257C       System.NextMediumBlock
 0003:00000030       System.NoErrMsg
 0001:000047C8       System.NotifyAnyExcept
 0001:0000479C       System.NotifyExcept
 0001:000047FC       System.NotifyExceptFinally
 0001:00008D98       System.NotifyModuleUnload
 0001:00004778       System.NotifyNonDelphiException
 0001:000047B4       System.NotifyOnExcept
 0001:0000475C       System.NotifyReRaise
 0001:00004824       System.NotifyTerminate
 0001:00004840       System.NotifyUnhandled
 0003:00000044       System.ObjCastGUID
 0001:000035B4       System.OpenText
 0004:00000324       System.Output
 0001:00003514       System.ParamCount
 0001:00006C4C       System.Pos
 0001:00005D9C       System.Pos
 0001:0000142C       System.RaiseException
 0004:00000014       System.RaiseExceptionProc
 0004:0000001C       System.RaiseExceptObjProc
 0001:00003298       System.RaiseList
 0005:00000000       System.RaiseListPtr
 0001:00001434       System.ReadFile
 0001:00001B68       System.ReallocateLargeBlock
 0001:00001524       System.RegCloseKey
 0001:00008DF4       System.RegisterModule
 0001:0000152C       System.RegOpenKeyEx
 0001:00001534       System.RegQueryValueEx
 0003:00000774       System.reMap
 0001:00001894       System.RemoveMediumFreeBlock
 0001:00008D34       System.RemoveModuleUnloadProc
 0001:00008D0C       System.RemoveModuleUnloadProc
 0004:000008D4       System.ReportMemoryLeaksOnShutdown
 0001:000089DC       System.ResouceDLLExists
 0001:0000143C       System.RtlUnwind
 0004:00000018       System.RTLUnwindProc
 0003:00000798       System.runErrMsg
 0001:000032A4       System.RunErrorAt
 0001:00002B74       System.ScanForMemoryLeaks
 0001:00003574       System.Set8087CW
 0001:00006C98       System.SetCodePage
 0001:00001444       System.SetEndOfFile
 0001:00004F04       System.SetExceptionHandler
 0001:0000144C       System.SetFilePointer
 0001:00003328       System.SetInOutRes
 0004:00002B4C       System.SetThreadUILanguage
 0001:000095B0       System.SetUtf8CompareLocale
 0001:000015B8       System.Sleep
 0003:0000007C       System.SmallBlockTypes
 0003:0000005C       System.SmallLeakDetail
 0001:00002548       System.SysAllocMem
 0001:0000154C       System.SysAllocStringLen
 0001:00002038       System.SysFreeMem
 0001:0000155C       System.SysFreeString
 0001:00001CB4       System.SysGetMem
 0001:00002230       System.SysReallocMem
 0001:00001554       System.SysReAllocStringLen
 0001:0000291C       System.SysRegisterExpectedMemoryLeak
 0002:00000000       System.System
 0003:00000038       System.SystemThreadFuncProc
 0001:0000295C       System.SysUnregisterExpectedMemoryLeak
 0004:0000004E       System.Test8086
 0001:000036A8       System.TextClose
 0001:0000361C       System.TextIn
 0001:000036C8       System.TextOpen
 0001:0000365C       System.TextOut
 0001:000053F4       System.ThreadWrapper
 0001:00008EF4       System.TInterfacedObject.AfterConstruction
 0001:00008F00       System.TInterfacedObject.BeforeDestruction
 0001:00008F10       System.TInterfacedObject.NewInstance
 0001:00008F20       System.TInterfacedObject.QueryInterface
 0001:00008F48       System.TInterfacedObject._AddRef
 0001:00008F5C       System.TInterfacedObject._Release
 0001:00004720       System.TMonitor.Destroy
 0001:00004708       System.TMonitor.Destroy
 0001:0000474C       System.TMonitor.GetFieldAddress
 0001:00004414       System.TObject.AfterConstruction
 0001:00004418       System.TObject.BeforeDestruction
 0001:000043EC       System.TObject.ClassInfo
 0001:00004028       System.TObject.ClassName
 0001:00004040       System.TObject.ClassNameIs
 0001:000040DC       System.TObject.ClassParent
 0001:00004020       System.TObject.ClassType
 0001:000041B4       System.TObject.CleanupInstance
 0001:00004120       System.TObject.Create
 0001:00004410       System.TObject.DefaultHandler
 0001:00004140       System.TObject.Destroy
 0001:0000441C       System.TObject.Dispatch
 0001:0000420C       System.TObject.Equals
 0001:00004628       System.TObject.FieldAddress
 0001:000045B4       System.TObject.FieldAddress
 0001:00004150       System.TObject.Free
 0001:00004104       System.TObject.FreeInstance
 0001:00004214       System.TObject.GetHashCode
 0001:00004218       System.TObject.GetInterface
 0001:000042E8       System.TObject.GetInterfaceEntry
 0001:0000432C       System.TObject.GetInterfaceTable
 0001:000043D8       System.TObject.InheritsFrom
 0001:0000415C       System.TObject.InitInstance
 0001:00004118       System.TObject.InstanceSize
 0001:000044D0       System.TObject.MethodAddress
 0001:00004540       System.TObject.MethodAddress
 0001:00004568       System.TObject.MethodName
 0001:000040E8       System.TObject.NewInstance
 0001:000043F4       System.TObject.SafeCallException
 0001:000043FC       System.TObject.ToString
 0001:00004334       System.TObject.UnitName
 0001:00008474       System.ToLongPath
 0001:00003B40       System.TryOpenForOutput
 0001:00001454       System.UnhandledExceptionFilter
 0003:00000070       System.UnicodeStringBlockMessage
 0001:00008F9C       System.UnicodeToUtf8
 0001:00005C6C       System.UniqueString
 0001:00006BF8       System.UniqueString
 0003:00000068       System.UnknownClassNameMsg
 0001:00008E04       System.UnregisterModule
 0001:00004F24       System.UnsetExceptionHandler
 0004:00002B50       System.UseThreadUILanguageAPI
 0001:00004444       System.UTF8Compare
 0004:000008D0       System.UTF8CompareLocale
 0001:000092D4       System.UTF8Decode
 0001:000090B0       System.UTF8Encode
 0001:000091D0       System.UTF8Encode
 0001:00009248       System.UTF8EncodeToShortString
 0001:000044BC       System.UTF8ShortStringToString
 0001:00009514       System.UTF8ToString
 0001:0000902C       System.Utf8ToUnicode
 0001:000093A8       System.UTF8ToUnicodeString
 0001:00009480       System.UTF8ToUnicodeString
 0003:00000010       System.VarAddRefProc
 0003:0000000C       System.VarClearProc
 0003:00000014       System.VarCopyProc
 0003:00000018       System.VarToLStrProc
 0003:0000001C       System.VarToWStrProc
 0001:000015A8       System.VirtualAlloc
 0001:000015B0       System.VirtualFree
 0001:00001544       System.VirtualQuery
 0001:00005644       System.WCharFromChar
 0001:0000153C       System.WideCharToMultiByte
 0001:00005240       System.WriteErrorMessage
 0001:0000145C       System.WriteFile
 0001:00005FDC       System.WStrError
 0001:00005FFC       System.WStrSet
 0004:00003F74       SysUtils..76
 0001:0006777C       SysUtils..EAbstractError
 0001:000673CC       SysUtils..EAccessViolation
 0001:000676D8       SysUtils..EAssertionFailed
 0001:000675A8       SysUtils..EControlC
 0001:00067330       SysUtils..EConvertError
 0001:00066D34       SysUtils..EDivByZero
 0001:00068220       SysUtils..EEncodingError
 0001:00066B40       SysUtils..EExternal
 0001:00066BF8       SysUtils..EExternalException
 0001:000668F8       SysUtils..EHeapException
 0001:00066A88       SysUtils..EInOutError
 0001:00066CA0       SysUtils..EIntError
 0001:0006781C       SysUtils..EIntfCastError
 0001:00066E64       SysUtils..EIntOverflow
 0001:00067294       SysUtils..EInvalidCast
 0001:00066F98       SysUtils..EInvalidOp
 0001:000671F4       SysUtils..EInvalidPointer
 0001:00066F00       SysUtils..EMathError
 0001:00067A14       SysUtils..EMonitor
 0001:00067AA8       SysUtils..EMonitorLockException
 0001:00067B54       SysUtils..ENoMonitorSupportException
 0001:000678BC       SysUtils..EOSError
 0001:000669EC       SysUtils..EOutOfMemory
 0001:000670C8       SysUtils..EOverflow
 0001:00067470       SysUtils..EPrivilege
 0001:00066DCC       SysUtils..ERangeError
 0001:0006796C       SysUtils..ESafecallException
 0001:00067508       SysUtils..EStackOverflow
 0001:0006715C       SysUtils..EUnderflow
 0001:0006763C       SysUtils..EVariantError
 0001:00066330       SysUtils..Exception
 0001:00067030       SysUtils..EZeroDivide
 0001:0006940C       SysUtils..TBigEndianUnicodeEncoding
 0001:000682C0       SysUtils..TEncoding
 0001:00068C48       SysUtils..TMBCSEncoding
 0001:00067F18       SysUtils..TMultiReadExclusiveWriteSynchronizer
 0001:00067CF4       SysUtils..TThreadLocalCounter
 0001:0006924C       SysUtils..TUnicodeEncoding
 0001:00068F0C       SysUtils..TUTF7Encoding
 0001:0006908C       SysUtils..TUTF8Encoding
 0001:0006EE94       SysUtils.AbstractErrorHandler
 0003:000040E0       SysUtils.AccessMode
 0001:0006995C       SysUtils.AnsiCompareStr
 0001:00069A28       SysUtils.AnsiCompareText
 0001:00069D54       SysUtils.AnsiExtractQuotedStr
 0001:0006FC08       SysUtils.AnsiPos
 0001:00069BB4       SysUtils.AnsiQuotedStr
 0001:0006FCE8       SysUtils.AnsiStrPos
 0001:0006FCF0       SysUtils.AnsiStrRScan
 0001:0006FCF8       SysUtils.AnsiStrScan
 0001:0006C024       SysUtils.AppendChars
 0001:0006C48C       SysUtils.AppendFormat
 0001:0006C0DC       SysUtils.AppendNumber
 0001:0006C068       SysUtils.AppendString
 0001:0006EE78       SysUtils.AssertErrorHandler
 0001:0006A9C0       SysUtils.BackfillGetDiskFreeSpaceEx
 0001:0006A570       SysUtils.BoolToStr
 0001:0006F750       SysUtils.ByteToCharIndex
 0001:0006F668       SysUtils.ByteToCharLen
 0001:0006FAD8       SysUtils.CharLength
 0001:0006F958       SysUtils.CharToByteIndex
 0001:0006FA70       SysUtils.CharToByteLen
 0001:0006F878       SysUtils.CharToElementIndex
 0001:0006F960       SysUtils.CharToElementLen
 0001:0006F4F0       SysUtils.CleanEventList
 0001:0006F4C0       SysUtils.CleanStack
 0001:00070B90       SysUtils.ClearHashTables
 0001:000697A8       SysUtils.CompareMem
 0001:000696E8       SysUtils.CompareStr
 0001:0006983C       SysUtils.CompareText
 0001:0006A478       SysUtils.CompareWith
 0001:00070D70       SysUtils.ContainsPreamble
 0001:0006E10C       SysUtils.ConvertAddr
 0001:0006C1D4       SysUtils.ConvertEraString
 0001:00069534       SysUtils.ConvertErrorFmt
 0001:0006C360       SysUtils.ConvertYearString
 0001:0006F758       SysUtils.CountChars
 0001:0006EDBC       SysUtils.CreateAssertException
 0001:0006EF4C       SysUtils.CreateAVObject
 0001:0006EB64       SysUtils.CreateInOutError
 0003:000040D8       SysUtils.cSimpleBoolStrs
 0004:00003E4E       SysUtils.CurrencyDecimals
 0004:00003E48       SysUtils.CurrencyFormat
 0004:00003E44       SysUtils.CurrencyString
 0001:0006C010       SysUtils.CurrentYear
 0001:0006BB1C       SysUtils.CurrToStr
 0001:0006A03C       SysUtils.CvtInt
 0001:0006A228       SysUtils.CvtInt64
 0001:0006A144       SysUtils.CvtInt64W
 0001:0006A088       SysUtils.CvtIntW
 0003:0000412C       SysUtils.CWNear
 0004:00003E50       SysUtils.DateSeparator
 0001:0006CC80       SysUtils.DateTimeToString
 0001:0006BC64       SysUtils.DateTimeToTimeStamp
 0001:0006BFE8       SysUtils.DayOfWeek
 0003:00004128       SysUtils.DCon10
 0004:00003E4C       SysUtils.DecimalSeparator
 0001:0006BFC8       SysUtils.DecodeDate
 0001:0006BE7C       SysUtils.DecodeDateFully
 0001:0006BD18       SysUtils.DecodeTime
 0003:00004334       SysUtils.DefaultFallbackLanguages
 0003:000041BC       SysUtils.DefLongDayNames
 0003:00004170       SysUtils.DefLongMonthNames
 0003:000041A0       SysUtils.DefShortDayNames
 0003:00004140       SysUtils.DefShortMonthNames
 0001:00069518       SysUtils.DivMod
 0001:0006F2B4       SysUtils.DoneExceptions
 0001:0006F51C       SysUtils.DoneMonitorSupport
 0001:0006EB08       SysUtils.EHeapException.FreeInstance
 0001:0006EB14       SysUtils.EHeapException.RaisingException
 0001:0006F670       SysUtils.ElementToCharIndex
 0001:0006F5C4       SysUtils.ElementToCharLen
 0003:00004064       SysUtils.EmptyAnsiStr
 0003:0000405C       SysUtils.EmptyStr
 0003:00004060       SysUtils.EmptyWideStr
 0001:0006DCE4       SysUtils.EnumEraNames
 0001:0006DD20       SysUtils.EnumEraYearOffsets
 0001:0006A604       SysUtils.EnumStringModules
 0004:00003F18       SysUtils.EraNames
 0001:0006D14C       SysUtils.EraToYear
 0004:00003F34       SysUtils.EraYearOffsets
 0001:0006ED64       SysUtils.ErrorHandler
 0003:000041D8       SysUtils.ErrorMap
 0004:00004080       SysUtils.EventCache
 0004:00004084       SysUtils.EventItemHolders
 0001:0006F214       SysUtils.ExceptHandler
 0004:00003E34       SysUtils.Exception.$ClassInitFlag
 0004:00003E40       SysUtils.Exception.CleanUpStackInfoProc
 0001:0006E44C       SysUtils.Exception.Create
 0002:000002DC       SysUtils.Exception.Create@
 0001:0006E488       SysUtils.Exception.CreateFmt
 0001:0006E72C       SysUtils.Exception.CreateFmtHelp
 0001:0006E6E4       SysUtils.Exception.CreateHelp
 0001:0006E580       SysUtils.Exception.CreateRes
 0001:0006E508       SysUtils.Exception.CreateRes
 0001:0006E650       SysUtils.Exception.CreateResFmt
 0001:0006E5BC       SysUtils.Exception.CreateResFmt
 0001:0006E87C       SysUtils.Exception.CreateResFmtHelp
 0001:0006E918       SysUtils.Exception.CreateResFmtHelp
 0001:0006E834       SysUtils.Exception.CreateResHelp
 0001:0006E7B4       SysUtils.Exception.CreateResHelp
 0001:0006E9B4       SysUtils.Exception.Destroy
 0001:0006F334       SysUtils.Exception.Destroy@
 0001:0006E9F8       SysUtils.Exception.GetBaseException
 0004:00003E38       SysUtils.Exception.GetExceptionStackInfoProc
 0004:00003E3C       SysUtils.Exception.GetStackInfoStringProc
 0001:0006EA04       SysUtils.Exception.GetStackTrace
 0001:0006EA30       SysUtils.Exception.RaiseOuterException
 0001:0006EA58       SysUtils.Exception.RaisingException
 0001:0006EA84       SysUtils.Exception.SetInnerException
 0001:0006EAAC       SysUtils.Exception.SetStackInfo
 0001:0006EA44       SysUtils.Exception.ThrowOuterException
 0001:0006EAB0       SysUtils.Exception.ToString
 0001:0006E118       SysUtils.ExceptionErrorMessage
 0003:0000425C       SysUtils.ExceptMap
 0003:00004210       SysUtils.ExceptTypes
 0001:0006A92C       SysUtils.ExpandFileName
 0001:0006A8EC       SysUtils.ExtractFileName
 0004:00003F54       SysUtils.FalseBoolStrs
 0003:0000411C       SysUtils.FCon1E18
 0001:0006A724       SysUtils.FileCreate
 0001:0006A6CC       SysUtils.FileOpen
 0001:0006A768       SysUtils.FileRead
 0001:0006A7C0       SysUtils.FileSeek
 0001:0006A794       SysUtils.FileWrite
 0001:00072198       SysUtils.Finalization
 0001:0006A640       SysUtils.FindStringResource
 0001:0006B748       SysUtils.FloatToDecimal
 0001:0006BAEC       SysUtils.FloatToStr
 0001:0006B448       SysUtils.FloatToText
 0003:00004130       SysUtils.FMSecsPerDay
 0001:0006ADA8       SysUtils.FmtStr
 0003:00004138       SysUtils.Format
 0001:0006AD94       SysUtils.Format
 0001:0006AD34       SysUtils.FormatBuf
 0001:0006ACEC       SysUtils.FormatError
 0003:00004114       SysUtils.FormatErrorStrs
 0001:00070AC4       SysUtils.FreeAndNil
 0001:0006F3E8       SysUtils.FreeSyncObj
 0001:000705E0       SysUtils.FreeTerminateProcs
 0001:0006F450       SysUtils.FreeWaitObj
 0001:0006C128       SysUtils.GetCount
 0001:0006C15C       SysUtils.GetDate
 0001:0006CF9C       SysUtils.GetDateOrder
 0003:000040D4       SysUtils.GetDiskFreeSpaceEx
 0001:0006DD98       SysUtils.GetEraNamesAndYearOffsets
 0001:0006D0F8       SysUtils.GetEraYearOffset
 0001:0006EF2C       SysUtils.GetExceptionClass
 0001:0006F118       SysUtils.GetExceptionObject
 0001:0006FE14       SysUtils.GetFormatSettings
 0001:0006DB54       SysUtils.GetLocaleChar
 0001:0006DB08       SysUtils.GetLocaleStr
 0001:0006DBC0       SysUtils.GetMonthDayNames
 0001:0006C194       SysUtils.GetTime
 0001:000703D4       SysUtils.HashName
 0001:00070340       SysUtils.HashNameMBCS
 0003:000040D0       SysUtils.HexDisplayPrefix
 0003:00004134       SysUtils.IMSecsPerDay
 0001:00070604       SysUtils.InitDriveSpacePtr
 0001:0006F224       SysUtils.InitExceptions
 0001:0006FD00       SysUtils.InitLeadBytes
 0001:0006F4B4       SysUtils.InitMonitorSupport
 0001:0006F554       SysUtils.InitPlatformId
 0001:0006FD5C       SysUtils.InitSysLocale
 0001:0007068C       SysUtils.InterlockedDecrement
 0001:00070698       SysUtils.InterlockedExchange
 0001:000706A0       SysUtils.InterlockedExchangeAdd
 0001:00070680       SysUtils.InterlockedIncrement
 0001:0006A31C       SysUtils.IntToHex
 0001:0006A2F4       SysUtils.IntToStr
 0001:0006A0E8       SysUtils.IntToStr
 0004:00003F7C       SysUtils.InvalidPointer
 0001:0006BD74       SysUtils.IsLeapYear
 0001:00069E90       SysUtils.IsValidIdent
 0004:00006070       SysUtils.LanguageArray
 0001:0006A810       SysUtils.LastDelimiter
 0003:000040B0       SysUtils.LeadBytes
 0004:00003F16       SysUtils.ListSeparator
 0001:0006A6B8       SysUtils.LoadStr
 0001:0006DB80       SysUtils.LocalGetLocaleStr
 0004:00003E58       SysUtils.LongDateFormat
 0004:00003EEC       SysUtils.LongDayNames
 0004:00003EA0       SysUtils.LongMonthNames
 0004:00003E6C       SysUtils.LongTimeFormat
 0001:00069670       SysUtils.LowerCase
 0001:00069620       SysUtils.LowerCaseFromAnsiString
 0001:0006EEAC       SysUtils.MapException
 0001:0007040C       SysUtils.ModuleUnloaded
 0003:0000431C       SysUtils.MonitorSupport
 0003:00004080       SysUtils.MonthDays
 0004:00003E49       SysUtils.NegCurrFormat
 0001:0006F384       SysUtils.NewSyncObj
 0001:0006F410       SysUtils.NewWaitObj
 0001:0006FB6C       SysUtils.NextCharIndex
 0004:00003F78       SysUtils.OutOfMemory
 0001:0006F364       SysUtils.Pop
 0001:0006F344       SysUtils.Push
 0001:0006B3E4       SysUtils.PutExponent
 0001:0006EE68       SysUtils.RaiseAssertException
 0001:0006F1F0       SysUtils.RaiseExceptObject
 0001:0007052C       SysUtils.RaiseLastOSError
 0001:00070538       SysUtils.RaiseLastOSError
 0001:00069938       SysUtils.SameText
 0001:0006CCDC       SysUtils.ScanBlanks
 0001:0006CEF0       SysUtils.ScanChar
 0001:0006D1A8       SysUtils.ScanDate
 0001:0006CD48       SysUtils.ScanNumber
 0001:0006CE10       SysUtils.ScanString
 0001:0006D560       SysUtils.ScanTime
 0001:0006D034       SysUtils.ScanToNumber
 0003:000040EC       SysUtils.ShareMode
 0003:00004100       SysUtils.ShareMode
 0004:00003E54       SysUtils.ShortDateFormat
 0004:00003ED0       SysUtils.ShortDayNames
 0004:00003E70       SysUtils.ShortMonthNames
 0004:00003E68       SysUtils.ShortTimeFormat
 0001:0006E308       SysUtils.ShowException
 0001:00070524       SysUtils.Sleep
 0001:0006FA78       SysUtils.StrCharLength
 0001:0006AA84       SysUtils.StrEnd
 0001:0006AAEC       SysUtils.StrLComp
 0001:0006AAB0       SysUtils.StrLCopy
 0001:0006AA64       SysUtils.StrLen
 0001:0006AA34       SysUtils.StrLen
 0001:0006AD50       SysUtils.StrLFmt
 0001:0006AB38       SysUtils.StrLIComp
 0001:0006AAA0       SysUtils.StrMove
 0001:0006ACC0       SysUtils.StrNew
 0001:0006FAA8       SysUtils.StrNextChar
 0001:0006ABF0       SysUtils.StrPos
 0001:0006AC48       SysUtils.StrPosLen
 0001:0006ABC0       SysUtils.StrRScan
 0001:0006ABA4       SysUtils.StrScan
 0001:0006A344       SysUtils.StrToInt
 0001:0006A380       SysUtils.StrToIntDef
 0001:00070AF8       SysUtils.Supports
 0001:00070AD4       SysUtils.Supports
 0004:00003F80       SysUtils.SyncEventCache
 0001:0006DAB8       SysUtils.SysErrorMessage
 0004:00003F08       SysUtils.SysLocale
 0002:000002EC       SysUtils.SysUtils
 0001:00071D70       SysUtils.TBigEndianUnicodeEncoding.GetBytes
 0001:00071DA4       SysUtils.TBigEndianUnicodeEncoding.GetChars
 0001:00071DE0       SysUtils.TBigEndianUnicodeEncoding.GetPreamble
 0004:00003F70       SysUtils.TEncoding.$ClassInitFlag
 0001:00070BC0       SysUtils.TEncoding.Convert
 0001:00070C34       SysUtils.TEncoding.Convert
 0002:000002D4       SysUtils.TEncoding.Create@
 0001:00070CB0       SysUtils.TEncoding.Destroy@
 0004:00003F58       SysUtils.TEncoding.FASCIIEncoding
 0004:00003F5C       SysUtils.TEncoding.FBigEndianUnicodeEncoding
 0004:00003F60       SysUtils.TEncoding.FDefaultEncoding
 0001:00070CC4       SysUtils.TEncoding.FreeEncodings
 0004:00003F64       SysUtils.TEncoding.FUnicodeEncoding
 0004:00003F68       SysUtils.TEncoding.FUTF7Encoding
 0004:00003F6C       SysUtils.TEncoding.FUTF8Encoding
 0001:00070D34       SysUtils.TEncoding.GetBigEndianUnicode
 0001:00070DCC       SysUtils.TEncoding.GetBufferEncoding
 0001:00071020       SysUtils.TEncoding.GetByteCount
 0001:00070F9C       SysUtils.TEncoding.GetByteCount
 0001:00070EF0       SysUtils.TEncoding.GetByteCount
 0001:00070ED4       SysUtils.TEncoding.GetByteCount
 0001:00071124       SysUtils.TEncoding.GetBytes
 0001:0007116C       SysUtils.TEncoding.GetBytes
 0001:0007137C       SysUtils.TEncoding.GetBytes
 0001:000712D8       SysUtils.TEncoding.GetBytes
 0001:00071520       SysUtils.TEncoding.GetCharCount
 0001:0007153C       SysUtils.TEncoding.GetCharCount
 0001:00071608       SysUtils.TEncoding.GetChars
 0001:0007172C       SysUtils.TEncoding.GetChars
 0001:0007162C       SysUtils.TEncoding.GetChars
 0001:00071880       SysUtils.TEncoding.GetDefault
 0001:000718C0       SysUtils.TEncoding.GetEncoding
 0001:00068C30       SysUtils.TEncoding.GetMaxByteCount
 0001:00068C38       SysUtils.TEncoding.GetMaxCharCount
 0001:00068C40       SysUtils.TEncoding.GetPreamble
 0001:000718D0       SysUtils.TEncoding.GetString
 0001:000718F4       SysUtils.TEncoding.GetString
 0001:00071964       SysUtils.TEncoding.GetUnicode
 0001:000719A0       SysUtils.TEncoding.GetUTF8
 0001:000719DC       SysUtils.TEncoding.IsStandardEncoding
 0003:00004330       SysUtils.TerminateProcList
 0001:0006BA88       SysUtils.TextToFloat
 0001:0006B974       SysUtils.TextToFloat
 0004:00003E4A       SysUtils.ThousandSeparator
 0004:00003E60       SysUtils.TimeAMString
 0004:00003E64       SysUtils.TimePMString
 0004:00003E5C       SysUtils.TimeSeparator
 0001:00071A14       SysUtils.TMBCSEncoding.Create
 0001:00071A54       SysUtils.TMBCSEncoding.Create
 0001:00071A9C       SysUtils.TMBCSEncoding.Create
 0001:00071B18       SysUtils.TMBCSEncoding.GetByteCount
 0001:00071B30       SysUtils.TMBCSEncoding.GetBytes
 0001:00071B54       SysUtils.TMBCSEncoding.GetCharCount
 0001:00071B68       SysUtils.TMBCSEncoding.GetChars
 0001:00071B88       SysUtils.TMBCSEncoding.GetMaxByteCount
 0001:00071B90       SysUtils.TMBCSEncoding.GetMaxCharCount
 0001:00071B94       SysUtils.TMBCSEncoding.GetPreamble
 0001:000709EC       SysUtils.TMultiReadExclusiveWriteSynchronizer.BeginRead
 0001:000708F0       SysUtils.TMultiReadExclusiveWriteSynchronizer.BeginWrite
 0001:000708AC       SysUtils.TMultiReadExclusiveWriteSynchronizer.BlockReaders
 0001:000707F0       SysUtils.TMultiReadExclusiveWriteSynchronizer.Create
 0001:00070864       SysUtils.TMultiReadExclusiveWriteSynchronizer.Destroy
 0001:00070A5C       SysUtils.TMultiReadExclusiveWriteSynchronizer.EndRead
 0001:0007099C       SysUtils.TMultiReadExclusiveWriteSynchronizer.EndWrite
 0001:000708C4       SysUtils.TMultiReadExclusiveWriteSynchronizer.UnblockOneWriter
 0001:000708B8       SysUtils.TMultiReadExclusiveWriteSynchronizer.UnblockReaders
 0001:000708D0       SysUtils.TMultiReadExclusiveWriteSynchronizer.WaitForReadSignal
 0001:000708E0       SysUtils.TMultiReadExclusiveWriteSynchronizer.WaitForWriteSignal
 0001:0006DE4C       SysUtils.TranslateDateFormat
 0001:00069AF4       SysUtils.Trim
 0004:00003F50       SysUtils.TrueBoolStrs
 0001:0006BDB0       SysUtils.TryEncodeDate
 0001:0006BCA8       SysUtils.TryEncodeTime
 0001:0006A4C8       SysUtils.TryStrToBool
 0001:0006BC48       SysUtils.TryStrToCurr
 0001:0006D768       SysUtils.TryStrToDate
 0001:0006D888       SysUtils.TryStrToDateTime
 0001:0006BBD8       SysUtils.TryStrToFloat
 0001:0006BB68       SysUtils.TryStrToFloat
 0001:0006BB4C       SysUtils.TryStrToFloat
 0001:0006A398       SysUtils.TryStrToInt
 0001:0006A3B8       SysUtils.TryStrToInt64
 0001:0006D7F8       SysUtils.TryStrToTime
 0001:00070794       SysUtils.TThreadLocalCounter.Close
 0001:0007079C       SysUtils.TThreadLocalCounter.Delete
 0001:000706A8       SysUtils.TThreadLocalCounter.Destroy
 0001:00070700       SysUtils.TThreadLocalCounter.HashIndex
 0001:0007071C       SysUtils.TThreadLocalCounter.Open
 0001:000707AC       SysUtils.TThreadLocalCounter.Recycle
 0001:00071CB4       SysUtils.TUnicodeEncoding.Create
 0001:00071CE0       SysUtils.TUnicodeEncoding.GetByteCount
 0001:00071CE8       SysUtils.TUnicodeEncoding.GetBytes
 0001:00071D04       SysUtils.TUnicodeEncoding.GetCharCount
 0001:00071D10       SysUtils.TUnicodeEncoding.GetChars
 0001:00071D30       SysUtils.TUnicodeEncoding.GetMaxByteCount
 0001:00071D38       SysUtils.TUnicodeEncoding.GetMaxCharCount
 0001:00071D48       SysUtils.TUnicodeEncoding.GetPreamble
 0001:00071BB0       SysUtils.TUTF7Encoding.Create
 0001:00071BEC       SysUtils.TUTF7Encoding.GetByteCount
 0001:00071BF4       SysUtils.TUTF7Encoding.GetBytes
 0001:00071C0C       SysUtils.TUTF7Encoding.GetCharCount
 0001:00071C14       SysUtils.TUTF7Encoding.GetChars
 0001:00071C2C       SysUtils.TUTF7Encoding.GetMaxByteCount
 0001:00071C34       SysUtils.TUTF7Encoding.GetMaxCharCount
 0001:00071C38       SysUtils.TUTF8Encoding.Create
 0001:00071C78       SysUtils.TUTF8Encoding.GetMaxByteCount
 0001:00071C80       SysUtils.TUTF8Encoding.GetMaxCharCount
 0001:00071C84       SysUtils.TUTF8Encoding.GetPreamble
 0003:0000407C       SysUtils.TwoDigitYearCenturyWindow
 0001:0006A108       SysUtils.UIntToStr
 0004:0000507C       SysUtils.UnitHashBuckets
 0001:000695A8       SysUtils.UpperCase
 0001:00069558       SysUtils.UpperCaseFromAnsiString
 0004:00004088       SysUtils.ValidatedUnitHashBuckets
 0001:0006A3D8       SysUtils.VerifyBoolStrArray
 0001:0006F47C       SysUtils.WaitAndOrSignalObj
 0001:0006AFE4       SysUtils.WideFloatToText
 0001:0006B000       SysUtils.WideFormatBuf
 0001:0006AF40       SysUtils.WideFormatError
 0001:0006AFC0       SysUtils.WideFormatVarToStr
 0001:0006ACA8       SysUtils.WideStrAlloc
 0003:00004074       SysUtils.Win32BuildNumber
 0001:000705D0       SysUtils.Win32Check
 0003:00004078       SysUtils.Win32CSDVersion
 0003:0000406C       SysUtils.Win32MajorVersion
 0003:00004070       SysUtils.Win32MinorVersion
 0003:00004068       SysUtils.Win32Platform
 0004:00006110       TypInfo..5
 0001:0007B6C0       TypInfo.AssignLongStr
 0001:0007C1F8       TypInfo.AssignVariant
 0003:00004494       TypInfo.BooleanIdents
 0003:0000449C       TypInfo.DotSep
 0001:0007C45C       TypInfo.Finalization
 0001:0007B8C0       TypInfo.GetAnsiStrProp
 0001:0007AF74       TypInfo.GetEnumName
 0001:0007B0E0       TypInfo.GetEnumNameValue
 0001:0007B158       TypInfo.GetEnumValue
 0001:0007BEE8       TypInfo.GetFloatProp
 0001:0007C304       TypInfo.GetInt64Prop
 0001:0007C368       TypInfo.GetInterfaceProp
 0001:0007B6D8       TypInfo.GetLongStrProp
 0001:0007C28C       TypInfo.GetMethodProp
 0001:0007B38C       TypInfo.GetOrdProp
 0001:0007B2B4       TypInfo.GetPropInfo
 0001:0007B308       TypInfo.GetPropInfos
 0001:0007AF18       TypInfo.GetPropName
 0001:0007B45C       TypInfo.GetSetElementName
 0001:0007B4F0       TypInfo.GetSetElementValue
 0001:0007B5C4       TypInfo.GetShortStrProp
 0001:0007B65C       TypInfo.GetShortStrPropAsLongStr
 0001:0007AF68       TypInfo.GetTypeData
 0001:0007BB58       TypInfo.GetUnicodeStrProp
 0001:0007B80C       TypInfo.GetUnicodeStrPropAsLongStr
 0001:0007C20C       TypInfo.GetVariantProp
 0001:0007B948       TypInfo.GetWideStrProp
 0001:0007B758       TypInfo.GetWideStrPropAsLongStr
 0001:0007B200       TypInfo.InternalGetPropInfo
 0001:0007B35C       TypInfo.IsStoredProp
 0001:0007B90C       TypInfo.SetAnsiStrProp
 0001:0007C000       TypInfo.SetFloatProp
 0001:0007C32C       TypInfo.SetInt64Prop
 0001:0007C3E8       TypInfo.SetInterfaceProp
 0001:0007B718       TypInfo.SetLongStrProp
 0001:0007C2CC       TypInfo.SetMethodProp
 0001:0007B400       TypInfo.SetOrdProp
 0001:0007BC70       TypInfo.SetRawByteStrProp
 0001:0007B608       TypInfo.SetShortStrProp
 0001:0007B68C       TypInfo.SetShortStrPropAsLongStr
 0001:0007BDC4       TypInfo.SetUnicodeStrProp
 0001:0007B868       TypInfo.SetUnicodeStrPropAsLongStr
 0001:0007C24C       TypInfo.SetVariantProp
 0001:0007BA5C       TypInfo.SetWideStrProp
 0001:0007B7B4       TypInfo.SetWideStrPropAsLongStr
 0002:00000444       TypInfo.TypInfo
 0001:0007B06C       TypInfo.UTF8SameText
 0004:000060F0       Variants..81
 0001:0007358C       Variants..EVariantArrayCreateError
 0001:000734D8       Variants..EVariantArrayLockedError
 0001:0007342C       Variants..EVariantBadIndexError
 0001:0007337C       Variants..EVariantBadVarTypeError
 0001:00073850       Variants..EVariantDispatchError
 0001:000732CC       Variants..EVariantInvalidArgError
 0001:000738FC       Variants..EVariantInvalidNullOpError
 0001:000730C4       Variants..EVariantInvalidOpError
 0001:00073640       Variants..EVariantNotImplError
 0001:000736EC       Variants..EVariantOutOfMemoryError
 0001:00073220       Variants..EVariantOverflowError
 0001:00073174       Variants..EVariantTypeCastError
 0001:000737A0       Variants..EVariantUnexpectedError
 0001:00072BB4       Variants..TCustomVariantType
 0001:00073F54       Variants.@DispInvokeError
 0001:00079F30       Variants.@VarAddRef
 0001:000748D8       Variants.@VarCast
 0001:00074258       Variants.@VarClear
 0001:0007426C       Variants.@VarClr
 0001:0007AC18       Variants.@VarCmpEQ
 0001:000745C0       Variants.@VarCopy
 0001:00079428       Variants.@VarFromBool
 0001:00079288       Variants.@VarFromByte
 0001:00079478       Variants.@VarFromCurr
 0001:000793D0       Variants.@VarFromCurrency
 0001:000793FC       Variants.@VarFromDate
 0001:00079548       Variants.@VarFromDisp
 0001:000793A4       Variants.@VarFromDouble
 0001:0007922C       Variants.@VarFromInt
 0001:00079354       Variants.@VarFromInt64
 0001:00079268       Variants.@VarFromInteger
 0001:0007951C       Variants.@VarFromIntf
 0001:000792C8       Variants.@VarFromLongWord
 0001:0007948C       Variants.@VarFromLStr
 0001:00079450       Variants.@VarFromReal
 0001:00079314       Variants.@VarFromShortInt
 0001:00079380       Variants.@VarFromSingle
 0001:00079334       Variants.@VarFromSmallInt
 0001:00079464       Variants.@VarFromTDateTime
 0001:000792E8       Variants.@VarFromUInt64
 0001:000794F0       Variants.@VarFromUStr
 0001:000792A8       Variants.@VarFromWord
 0001:000794B8       Variants.@VarFromWStr
 0001:00073FA8       Variants.@VarNull
 0001:00076340       Variants.@VarToBool
 0001:00075FA4       Variants.@VarToBoolean
 0001:00075228       Variants.@VarToByte
 0001:00077320       Variants.@VarToCurrency
 0001:00076D24       Variants.@VarToDate
 0001:00079180       Variants.@VarToDisp
 0001:0007650C       Variants.@VarToDouble
 0001:000757FC       Variants.@VarToInt64
 0001:00074CC4       Variants.@VarToInteger
 0001:000790B4       Variants.@VarToIntf
 0001:000754AC       Variants.@VarToLongWord
 0001:00077A58       Variants.@VarToLStr
 0001:000768FC       Variants.@VarToReal
 0001:00075174       Variants.@VarToShortInt
 0001:00076918       Variants.@VarToSingle
 0001:000752D4       Variants.@VarToSmallInt
 0001:00075C8C       Variants.@VarToUInt64
 0001:00078A34       Variants.@VarToUStr
 0001:000753D0       Variants.@VarToWord
 0001:0007830C       Variants.@VarToWStr
 0001:0007903C       Variants.AnyToIntf
 0003:00004358       Variants.BaseTypeMap
 0003:00004354       Variants.BooleanToStringRule
 0001:000777EC       Variants.BoolToWStrViaOS
 0003:00004388       Variants.CBooleanToRelationship
 0004:000060E8       Variants.ChangeAnyProc
 0001:00079574       Variants.CheckType
 0003:00004370       Variants.CInvalidCustomVariantType
 0004:000060E4       Variants.ClearAnyProc
 0001:0007A51C       Variants.ClearVariantTypeList
 0003:00004394       Variants.CmpTypeMap
 0003:00004374       Variants.CRangeToType
 0003:00004480       Variants.CRelationshipToBoolean
 0003:00004424       Variants.CText
 0001:0007985C       Variants.CurrCompare
 0001:0007777C       Variants.CurrToWStrViaOS
 0001:00079830       Variants.DateCompare
 0001:000777B4       Variants.DateToWStrViaOS
 0001:00079678       Variants.EmptyCompare
 0004:000060D0       Variants.EmptyParam
 0001:0007AC28       Variants.Finalization
 0001:0007AA80       Variants.FindCustomVariantType
 0001:0007AB3C       Variants.FindCustomVariantType
 0001:0007A360       Variants.FindVarData
 0001:0007A480       Variants.GetVarDataArrayInfo
 0001:00073ED0       Variants.HandleConversionException
 0001:00073FBC       Variants.InBounds
 0001:00074274       Variants.InBounds
 0001:00073FEC       Variants.Increment
 0001:000742A4       Variants.Increment
 0001:00079794       Variants.Int64Compare
 0001:00079780       Variants.IntCompare
 0003:0000447C       Variants.LNextVarType
 0004:000060F4       Variants.LVarTypes
 0004:000060F8       Variants.LVarTypeSync
 0001:0007AC10       Variants.Null
 0003:0000434C       Variants.NullAsStringValue
 0001:0007968C       Variants.NullCompare
 0003:00004340       Variants.NullEqualityRule
 0003:00004344       Variants.NullMagnitudeRule
 0003:00004348       Variants.NullStrictConvert
 0003:00004350       Variants.PackVarCreation
 0001:00079804       Variants.RealCompare
 0004:000060EC       Variants.RefAnyProc
 0001:0007A474       Variants.SetClearVarToEmptyParam
 0001:0007A45C       Variants.SetVarAsError
 0001:0007988C       Variants.StringCompare
 0001:0007A588       Variants.TCustomVariantType.BinaryOp
 0001:0007A594       Variants.TCustomVariantType.Cast
 0001:0007A5CC       Variants.TCustomVariantType.CastTo
 0001:0007A658       Variants.TCustomVariantType.CastToOle
 0001:000730B4       Variants.TCustomVariantType.Clear
 0001:0007A614       Variants.TCustomVariantType.Compare
 0001:0007A620       Variants.TCustomVariantType.CompareOp
 0001:000730BC       Variants.TCustomVariantType.Copy
 0001:0007A6D8       Variants.TCustomVariantType.Create
 0001:0007A694       Variants.TCustomVariantType.Create
 0001:0007A954       Variants.TCustomVariantType.Destroy
 0001:0007AA34       Variants.TCustomVariantType.DispInvoke
 0001:0007A9E0       Variants.TCustomVariantType.IsClear
 0001:0007A9E4       Variants.TCustomVariantType.LeftPromotion
 0001:0007A9F8       Variants.TCustomVariantType.OlePromotion
 0001:0007AA58       Variants.TCustomVariantType.QueryInterface
 0001:0007AA00       Variants.TCustomVariantType.RaiseCastError
 0001:0007AA10       Variants.TCustomVariantType.RaiseDispError
 0001:0007AA08       Variants.TCustomVariantType.RaiseInvalidOp
 0001:0007AA18       Variants.TCustomVariantType.RightPromotion
 0001:0007AA2C       Variants.TCustomVariantType.UnaryOp
 0001:0007AA40       Variants.TCustomVariantType._AddRef
 0001:0007AA4C       Variants.TCustomVariantType._Release
 0001:00073C3C       Variants.TranslateResult
 0001:000797D0       Variants.UInt64Compare
 0001:00074048       Variants.VarArrayClear
 0001:00074300       Variants.VarArrayCopyForEach
 0001:00073BE8       Variants.VarArrayCreateError
 0001:00074604       Variants.VarCastAsAny
 0001:00074754       Variants.VarCastAsDispatch
 0001:000747A0       Variants.VarCastAsInterface
 0001:00074670       Variants.VarCastAsOleStr
 0001:000746BC       Variants.VarCastAsString
 0001:00074708       Variants.VarCastAsUString
 0001:000739B4       Variants.VarCastError
 0001:00073A08       Variants.VarCastError
 0001:0007486C       Variants.VarCastRare
 0001:000747EC       Variants.VarCastViaOS
 0001:000741C4       Variants.VarClearDeep
 0001:00079EC8       Variants.VarCompare
 0001:000795A0       Variants.VarCompareAny
 0001:00079AA4       Variants.VarCompareRare
 0001:000798F8       Variants.VarCompareSimple
 0001:000744CC       Variants.VarCopyCopyProc
 0001:000744D4       Variants.VarCopyDeep
 0004:000060E0       Variants.VarDispProc
 0002:00000398       Variants.Variants
 0001:00073AF8       Variants.VarInvalidNullOp
 0001:00073AA4       Variants.VarInvalidOp
 0001:0007A4C4       Variants.VarIsArray
 0001:0007A4CC       Variants.VarIsArray
 0001:0007A370       Variants.VarIsClear
 0001:00073B4C       Variants.VarOverflowError
 0001:00073E9C       Variants.VarResultCheck
 0001:00073E90       Variants.VarResultCheck
 0001:0007A3E4       Variants.VarSameValue
 0001:00075EF4       Variants.VarToBoolAny
 0001:00075DF0       Variants.VarToBoolAsString
 0001:00075F58       Variants.VarToBoolCustom
 0001:00075EB4       Variants.VarToBoolViaOS
 0001:00077270       Variants.VarToCurrencyAny
 0001:000771C4       Variants.VarToCurrencyAsDouble
 0001:00077108       Variants.VarToCurrencyAsString
 0001:000772D4       Variants.VarToCurrencyCustom
 0001:00077224       Variants.VarToCurrencyViaOS
 0001:00076C74       Variants.VarToDateAny
 0001:00076BC8       Variants.VarToDateAsDouble
 0001:00076ADC       Variants.VarToDateAsString
 0001:00076CD8       Variants.VarToDateCustom
 0001:00076C28       Variants.VarToDateViaOS
 0001:0007645C       Variants.VarToDoubleAny
 0001:0007634C       Variants.VarToDoubleAsString
 0001:000764C0       Variants.VarToDoubleCustom
 0001:00076410       Variants.VarToDoubleViaOS
 0001:00075744       Variants.VarToInt64Any
 0001:00075644       Variants.VarToInt64AsString
 0001:000757B0       Variants.VarToInt64Custom
 0001:00075598       Variants.VarToInt64ViaOS
 0001:00074C1C       Variants.VarToIntAny
 0001:00074B2C       Variants.VarToIntAsString
 0001:00074C80       Variants.VarToIntCustom
 0001:00074BE0       Variants.VarToIntViaOS
 0001:0007796C       Variants.VarToLStrAny
 0001:000779D0       Variants.VarToLStrCustom
 0001:000778B4       Variants.VarToLStrViaOS
 0001:00078908       Variants.VarToUStrAny
 0001:0007896C       Variants.VarToUStrCustom
 0001:000781CC       Variants.VarToWStrAny
 0001:00078230       Variants.VarToWStrCustom
 0001:00078100       Variants.VarToWStrViaOS
 0001:0007A1AC       Variants.VarTypeAsText
 0004:000060CC       VarUtils..5
 0001:000725D0       VarUtils.BackupVarBoolFromStr
 0001:00072734       VarUtils.BackupVarBStrFromBool
 0001:00072650       VarUtils.BackupVarBStrFromCy
 0001:000726C0       VarUtils.BackupVarBStrFromDate
 0001:00072564       VarUtils.BackupVarCyFromStr
 0001:000724F8       VarUtils.BackupVarDateFromStr
 0001:000723B4       VarUtils.BackupVarI4FromStr
 0001:00072360       VarUtils.BackupVariantChangeTypeEx
 0001:00072420       VarUtils.BackupVarR4FromStr
 0001:0007248C       VarUtils.BackupVarR8FromStr
 0001:0007239C       VarUtils.BiUnimplemented
 0001:000723A8       VarUtils.CmpUnimplemented
 0003:00004338       VarUtils.CResult
 0001:00072B0C       VarUtils.Finalization
 0001:000727C8       VarUtils.FindProc
 0001:000727F4       VarUtils.InitializeVarUtils
 0001:000727A8       VarUtils.SafeArrayCreate
 0001:000727B0       VarUtils.SafeArrayGetLBound
 0001:000727B8       VarUtils.SafeArrayGetUBound
 0001:000727C0       VarUtils.SafeArrayPtrOfIndex
 0001:00072390       VarUtils.UniUnimplemented
 0004:00006080       VarUtils.VarAdd
 0004:00006098       VarUtils.VarAnd
 0004:000060BC       VarUtils.VarBoolFromStr
 0004:000060C8       VarUtils.VarBstrFromBool
 0004:000060C0       VarUtils.VarBstrFromCy
 0004:000060C4       VarUtils.VarBstrFromDate
 0004:000060A4       VarUtils.VarCmp
 0004:000060B8       VarUtils.VarCyFromStr
 0004:000060B4       VarUtils.VarDateFromStr
 0004:0000608C       VarUtils.VarDiv
 0004:000060A8       VarUtils.VarI4FromStr
 0001:00072358       VarUtils.VariantChangeType
 0004:00006074       VarUtils.VariantChangeTypeEx
 0001:00072348       VarUtils.VariantClear
 0001:00072350       VarUtils.VariantCopy
 0001:00072340       VarUtils.VariantInit
 0004:00006090       VarUtils.VarIDiv
 0004:00006094       VarUtils.VarMod
 0004:00006088       VarUtils.VarMul
 0004:00006078       VarUtils.VarNeg
 0004:0000607C       VarUtils.VarNot
 0004:0000609C       VarUtils.VarOr
 0004:000060AC       VarUtils.VarR4FromStr
 0004:000060B0       VarUtils.VarR8FromStr
 0004:00006084       VarUtils.VarSub
 0002:00000388       VarUtils.VarUtils
 0004:000060A0       VarUtils.VarXor
 0004:00002C40       Windows..2
 0001:0000A330       Windows.AllocateAndInitializeSid
 0001:0000AA14       Windows.AttachThreadInput
 0001:0000A3A8       Windows.Beep
 0001:0000AA1C       Windows.BeginPaint
 0001:0000A90C       Windows.BitBlt
 0001:0000AA24       Windows.BringWindowToTop
 0001:0000AA2C       Windows.CallWindowProc
 0001:0000AA34       Windows.CharNext
 0001:0000AA3C       Windows.CharUpperBuff
 0001:0000AA44       Windows.CloseClipboard
 0001:0000A3B0       Windows.CloseHandle
 0001:0000A914       Windows.CombineRgn
 0001:0000A3B8       Windows.CompareString
 0001:0000A3C0       Windows.CompareStringW
 0001:0000A3C8       Windows.CopyFileA
 0001:0000A91C       Windows.CreateCompatibleDC
 0001:0000A924       Windows.CreateDC
 0001:0000A92C       Windows.CreateDIBSection
 0001:0000A3D0       Windows.CreateDirectoryA
 0001:0000A3D8       Windows.CreateEvent
 0001:0000A3E0       Windows.CreateFile
 0001:0000A3E8       Windows.CreateFileA
 0001:0000A3F8       Windows.CreateFileMapping
 0001:0000A400       Windows.CreateFileMappingA
 0001:0000A408       Windows.CreateFileMappingW
 0001:0000A3F0       Windows.CreateFileW
 0001:0000A934       Windows.CreateFont
 0001:0000A93C       Windows.CreateFontA
 0001:0000A418       Windows.CreateMutex
 0001:0000A440       Windows.CreateMutexA
 0001:0000A944       Windows.CreatePen
 0001:0000A460       Windows.CreatePipe
 0001:0000A468       Windows.CreateProcess
 0001:0000A470       Windows.CreateProcessA
 0001:0000A94C       Windows.CreateRectRgnIndirect
 0001:0000A478       Windows.CreateRemoteThread
 0001:0000A954       Windows.CreateSolidBrush
 0001:0000A480       Windows.CreateThread
 0001:0000ADB8       Windows.CreateWindow
 0001:0000AE10       Windows.CreateWindowA
 0001:0000AD60       Windows.CreateWindowExA
 0001:0000AA4C       Windows.DefWindowProcA
 0001:0000AA54       Windows.DefWindowProcW
 0001:0000A488       Windows.DeleteCriticalSection
 0001:0000A95C       Windows.DeleteDC
 0001:0000A490       Windows.DeleteFileA
 0001:0000A498       Windows.DeleteFileW
 0001:0000A964       Windows.DeleteObject
 0001:0000AA5C       Windows.DestroyWindow
 0001:0000AA64       Windows.DispatchMessage
 0001:0000AA6C       Windows.DrawFocusRect
 0001:0000AA74       Windows.DrawFrameControl
 0001:0000AA7C       Windows.DrawIconEx
 0001:0000AA84       Windows.DrawTextA
 0001:0000A4A0       Windows.DuplicateHandle
 0001:0000AA8C       Windows.EmptyClipboard
 0001:0000AA94       Windows.EnableWindow
 0001:0000A96C       Windows.EndDoc
 0001:0000A974       Windows.EndPage
 0001:0000AA9C       Windows.EndPaint
 0001:0000A4A8       Windows.EnterCriticalSection
 0001:0000A4B0       Windows.EnumCalendarInfo
 0001:0000AAA4       Windows.EnumWindows
 0001:0000A4B8       Windows.ExitProcess
 0001:0000A4C0       Windows.ExitThread
 0001:0000A4C8       Windows.ExpandEnvironmentStringsA
 0001:0000A4D0       Windows.FileTimeToDosDateTime
 0001:0000A4D8       Windows.FileTimeToLocalFileTime
 0001:0000A4E0       Windows.FileTimeToSystemTime
 0001:0000AAAC       Windows.FillRect
 0001:0000AEA4       Windows.Finalization
 0001:0000A4E8       Windows.FindClose
 0001:0000A4F0       Windows.FindFirstFileA
 0001:0000A4F8       Windows.FindNextFileA
 0001:0000A500       Windows.FindResource
 0001:0000A508       Windows.FindResourceA
 0001:0000AAB4       Windows.FindWindow
 0001:0000A510       Windows.FormatMessage
 0001:0000A518       Windows.FormatMessageA
 0001:0000AABC       Windows.FrameRect
 0001:0000A520       Windows.FreeLibrary
 0001:0000A560       Windows.FreeResource
 0001:0000A338       Windows.FreeSid
 0001:0000A97C       Windows.GdiFlush
 0001:0000AAC4       Windows.GetCapture
 0001:0000AACC       Windows.GetClassNameA
 0001:0000AAD4       Windows.GetClientRect
 0001:0000A570       Windows.GetCommandLine
 0001:0000A578       Windows.GetCommandLineA
 0001:0000A580       Windows.GetComputerNameA
 0001:0000A568       Windows.GetCPInfo
 0001:0000A588       Windows.GetCurrentProcess
 0001:0000A590       Windows.GetCurrentProcessId
 0001:0000A598       Windows.GetCurrentThread
 0001:0000A5A0       Windows.GetCurrentThreadId
 0001:0000AADC       Windows.GetCursor
 0001:0000AAE4       Windows.GetCursorPos
 0001:0000A5A8       Windows.GetDateFormat
 0001:0000AAEC       Windows.GetDC
 0001:0000A984       Windows.GetDeviceCaps
 0001:0000A5B0       Windows.GetDiskFreeSpace
 0001:0000A5B8       Windows.GetDiskFreeSpaceA
 0001:0000A5C0       Windows.GetFileAttributesA
 0001:0000A5C8       Windows.GetFileAttributesW
 0001:0000A5D0       Windows.GetFileSize
 0001:0000A5D8       Windows.GetFileTime
 0001:0000A8E4       Windows.GetFileVersionInfoA
 0001:0000A8F4       Windows.GetFileVersionInfoSizeA
 0001:0000A8FC       Windows.GetFileVersionInfoSizeW
 0001:0000A8EC       Windows.GetFileVersionInfoW
 0001:0000AAF4       Windows.GetFocus
 0001:0000A5E0       Windows.GetFullPathName
 0001:0000AAFC       Windows.GetIconInfo
 0001:0000AB04       Windows.GetKeyState
 0001:0000A5E8       Windows.GetLastError
 0001:0000A5F8       Windows.GetLocaleInfo
 0001:0000A600       Windows.GetLocaleInfoA
 0001:0000A5F0       Windows.GetLocalTime
 0001:0000AB0C       Windows.GetMessage
 0001:0000AB14       Windows.GetMessageA
 0001:0000AB1C       Windows.GetMessageW
 0001:0000A608       Windows.GetModuleFileName
 0001:0000A610       Windows.GetModuleFileNameA
 0001:0000A618       Windows.GetModuleFileNameW
 0001:0000A620       Windows.GetModuleHandle
 0001:0000A628       Windows.GetModuleHandleA
 0001:0000A630       Windows.GetModuleHandleW
 0001:0000AB24       Windows.GetNextWindow
 0001:0000A98C       Windows.GetObject
 0001:0000A638       Windows.GetPriorityClass
 0001:0000A648       Windows.GetProcAddress
 0001:0000A640       Windows.GetProcAddress
 0001:0000A994       Windows.GetRgnBox
 0001:0000A6BC       Windows.GetStdHandle
 0001:0000A99C       Windows.GetStockObject
 0001:0000AB2C       Windows.GetSysColor
 0001:0000AB34       Windows.GetSysColorBrush
 0001:0000A6C4       Windows.GetSystemDirectory
 0001:0000AB3C       Windows.GetSystemMenu
 0001:0000AB44       Windows.GetSystemMetrics
 0001:0000A6CC       Windows.GetSystemTime
 0001:0000A6D4       Windows.GetTempPathA
 0001:0000A9A4       Windows.GetTextExtentPoint32A
 0001:0000A9AC       Windows.GetTextFaceA
 0001:0000A9B4       Windows.GetTextMetrics
 0001:0000A6DC       Windows.GetThreadContext
 0001:0000A6E4       Windows.GetThreadLocale
 0001:0000A6EC       Windows.GetThreadPriority
 0001:0000A6F4       Windows.GetTickCount
 0001:0000A340       Windows.GetUserNameA
 0001:0000A6FC       Windows.GetVersion
 0001:0000A704       Windows.GetVersionEx
 0001:0000A70C       Windows.GetVersionExA
 0001:0000A714       Windows.GetVersionExW
 0001:0000AB4C       Windows.GetWindowDC
 0001:0000AB54       Windows.GetWindowLong
 0001:0000AB5C       Windows.GetWindowPlacement
 0001:0000AB64       Windows.GetWindowRect
 0001:0000A71C       Windows.GetWindowsDirectoryA
 0001:0000AB6C       Windows.GetWindowTextA
 0001:0000AB74       Windows.GetWindowThreadProcessId
 0001:0000A724       Windows.GlobalAlloc
 0001:0000AD10       Windows.GlobalAllocPtr
 0001:0000A72C       Windows.GlobalFree
 0001:0000AD3C       Windows.GlobalFreePtr
 0001:0000A73C       Windows.GlobalHandle
 0001:0000A734       Windows.GlobalLock
 0001:0000A744       Windows.GlobalMemoryStatus
 0001:0000A74C       Windows.GlobalReAlloc
 0001:0000AD20       Windows.GlobalReAllocPtr
 0001:0000A754       Windows.GlobalUnlock
 0004:00002C44       Windows.HtmlHelpModule
 0001:0000AB7C       Windows.InflateRect
 0001:0000A75C       Windows.InitializeCriticalSection
 0001:0000A348       Windows.InitializeSecurityDescriptor
 0001:0000AE68       Windows.InitVersionInfo
 0001:0000A528       Windows.InterlockedCompareExchange
 0001:0000A530       Windows.InterlockedCompareExchangePointer
 0001:0000A548       Windows.InterlockedDecrement
 0001:0000A550       Windows.InterlockedExchange
 0001:0000A558       Windows.InterlockedIncrement
 0001:0000AB84       Windows.InvalidateRect
 0001:0000A764       Windows.IsBadReadPtr
 0001:0000AB8C       Windows.IsDialogMessage
 0001:0000AB94       Windows.IsIconic
 0001:0000AB9C       Windows.IsWindow
 0001:0000ABA4       Windows.IsWindowEnabled
 0001:0000ABAC       Windows.IsWindowUnicode
 0001:0000ABB4       Windows.IsWindowVisible
 0001:0000ABBC       Windows.KillTimer
 0001:0000A76C       Windows.LeaveCriticalSection
 0001:0000A9BC       Windows.LineTo
 0001:0000ABC4       Windows.LoadCursor
 0001:0000ABCC       Windows.LoadImageA
 0001:0000A774       Windows.LoadLibrary
 0001:0000A77C       Windows.LoadLibraryExA
 0001:0000A784       Windows.LoadResource
 0001:0000ABD4       Windows.LoadString
 0001:0000A78C       Windows.LocalAlloc
 0001:0000A794       Windows.LocalFree
 0001:0000A79C       Windows.LocalSize
 0001:0000A7A4       Windows.LockResource
 0001:0000A8D4       Windows.lstrcmpA
 0001:0000A8DC       Windows.lstrlenW
 0001:0000A7AC       Windows.MapViewOfFile
 0001:0000ABDC       Windows.MessageBeep
 0001:0000ABE4       Windows.MessageBox
 0001:0000ABEC       Windows.MessageBoxA
 0001:0000A9C4       Windows.MoveToEx
 0001:0000A7B4       Windows.MultiByteToWideChar
 0001:0000ABF4       Windows.OffsetRect
 0001:0000ABFC       Windows.OpenClipboard
 0001:0000A7BC       Windows.OpenFileMapping
 0001:0000A7C4       Windows.OpenFileMappingA
 0001:0000A7CC       Windows.OpenProcess
 0001:0000AC04       Windows.PeekMessage
 0001:0000AC0C       Windows.PeekMessageA
 0001:0000AC14       Windows.PeekMessageW
 0001:0000AC1C       Windows.PostMessage
 0001:0000AC24       Windows.PostMessageA
 0001:0000AC2C       Windows.PostQuitMessage
 0001:0000AC34       Windows.PostThreadMessage
 0001:0000AC3C       Windows.PostThreadMessageA
 0001:0000A7D4       Windows.QueryPerformanceCounter
 0001:0000A7DC       Windows.QueryPerformanceFrequency
 0001:0000A7E4       Windows.RaiseException
 0001:0000A7EC       Windows.ReadFile
 0001:0000A7F4       Windows.ReadProcessMemory
 0001:0000A350       Windows.RegCloseKey
 0001:0000A358       Windows.RegCreateKeyExA
 0001:0000A360       Windows.RegDeleteValueA
 0001:0000A368       Windows.RegEnumKeyA
 0001:0000AC44       Windows.RegisterClassA
 0001:0000AC4C       Windows.RegisterWindowMessage
 0001:0000A370       Windows.RegOpenKeyEx
 0001:0000A378       Windows.RegOpenKeyExA
 0001:0000A380       Windows.RegQueryInfoKey
 0001:0000A388       Windows.RegQueryValueEx
 0001:0000A390       Windows.RegQueryValueExA
 0001:0000A398       Windows.RegSetValueExA
 0001:0000AC54       Windows.ReleaseCapture
 0001:0000AC5C       Windows.ReleaseDC
 0001:0000A7FC       Windows.ReleaseMutex
 0001:0000A804       Windows.RemoveDirectoryA
 0001:0000AC64       Windows.RemoveMenu
 0001:0000A80C       Windows.ResetEvent
 0001:0000A814       Windows.ResumeThread
 0001:0000AC6C       Windows.ScreenToClient
 0001:0000A9CC       Windows.SelectClipRgn
 0001:0000A9D4       Windows.SelectObject
 0001:0000AC74       Windows.SendMessage
 0001:0000AC7C       Windows.SendMessageA
 0001:0000AC84       Windows.SendMessageTimeoutA
 0001:0000AC8C       Windows.SetActiveWindow
 0001:0000A9DC       Windows.SetBkColor
 0001:0000A9E4       Windows.SetBkMode
 0001:0000AC94       Windows.SetCapture
 0001:0000AC9C       Windows.SetClipboardData
 0001:0000ACA4       Windows.SetCursor
 0001:0000A81C       Windows.SetEndOfFile
 0001:0000A824       Windows.SetEvent
 0001:0000A82C       Windows.SetFileAttributesA
 0001:0000A834       Windows.SetFilePointer
 0001:0000ACAC       Windows.SetFocus
 0001:0000ACB4       Windows.SetForegroundWindow
 0001:0000A83C       Windows.SetLastError
 0001:0000A9EC       Windows.SetMapMode
 0001:0000ACBC       Windows.SetRect
 0001:0000A3A0       Windows.SetSecurityDescriptorDacl
 0001:0000A9F4       Windows.SetTextColor
 0001:0000A844       Windows.SetThreadPriority
 0001:0000ACC4       Windows.SetTimer
 0001:0000A84C       Windows.SetUnhandledExceptionFilter
 0001:0000ACCC       Windows.SetWindowLongA
 0001:0000ACD4       Windows.SetWindowPos
 0001:0000ACDC       Windows.SetWindowTextA
 0001:0000ACE4       Windows.ShowWindow
 0001:0000A854       Windows.SignalObjectAndWait
 0001:0000A85C       Windows.SizeofResource
 0001:0000A864       Windows.Sleep
 0001:0000A9FC       Windows.StartDocA
 0001:0000AA04       Windows.StartPage
 0001:0000A86C       Windows.SuspendThread
 0001:0000ACEC       Windows.SystemParametersInfo
 0001:0000A874       Windows.SystemTimeToFileTime
 0001:0000A87C       Windows.TerminateProcess
 0001:0000A884       Windows.TerminateThread
 0001:0000AA0C       Windows.TextOutA
 0001:0000ACF4       Windows.TranslateMessage
 0001:0000AD0C       Windows.UnlockResource
 0001:0000A88C       Windows.UnmapViewOfFile
 0001:0000A904       Windows.VerQueryValueA
 0001:0000A894       Windows.VirtualAlloc
 0001:0000A89C       Windows.VirtualFree
 0001:0000A8A4       Windows.VirtualProtect
 0001:0000A8AC       Windows.VirtualQuery
 0001:0000A8B4       Windows.VirtualQueryEx
 0001:0000A8BC       Windows.WaitForSingleObject
 0001:0000A8C4       Windows.WideCharToMultiByte
 0003:00000A04       Windows.Win32MajorVersion
 0003:00000A08       Windows.Win32MinorVersion
 0003:00000A0C       Windows.Win32Platform
 0001:0000ACFC       Windows.WindowFromPoint
 0002:000000AC       Windows.Windows
 0001:0000A8CC       Windows.WriteFile
 0001:0000AD04       Windows.ZeroMemory
 0001:0000A410       Windows._CreateMutex
 0001:0000A438       Windows._CreateMutexA
 0001:0000AD50       Windows._CreateWindowEx
 0001:0000AD58       Windows._CreateWindowExA
 0001:00032C38       WinSock.bind
 0001:00032C40       WinSock.closesocket
 0001:00032C48       WinSock.connect
 0001:00032C98       WinSock.gethostbyname
 0001:00032C50       WinSock.htons
 0001:00032C58       WinSock.inet_addr
 0001:00032C60       WinSock.recv
 0001:00032C68       WinSock.recvfrom
 0001:00032C70       WinSock.select
 0001:00032C78       WinSock.send
 0001:00032C80       WinSock.sendto
 0001:00032C88       WinSock.setsockopt
 0001:00032C90       WinSock.socket
 0001:00032CA8       WinSock.WSACleanup
 0001:00032CA0       WinSock.WSAStartup


  Address             Publics by Value

 0001:0000040C       System..TObject
 0001:00000C74       System..TInterfacedObject
 0001:000013CC       System.InterlockedIncrement
 0001:000013D8       System.InterlockedDecrement
 0001:000013E4       System.CloseHandle
 0001:000013EC       System.CreateFile
 0001:000013F4       System.InitializeCriticalSection
 0001:000013FC       System.EnterCriticalSection
 0001:00001404       System.LeaveCriticalSection
 0001:0000140C       System.DeleteCriticalSection
 0001:00001414       System.GetFileType
 0001:0000141C       System.GetFileSize
 0001:00001424       System.GetStdHandle
 0001:0000142C       System.RaiseException
 0001:00001434       System.ReadFile
 0001:0000143C       System.RtlUnwind
 0001:00001444       System.SetEndOfFile
 0001:0000144C       System.SetFilePointer
 0001:00001454       System.UnhandledExceptionFilter
 0001:0000145C       System.WriteFile
 0001:00001464       System.CharNext
 0001:0000146C       System.CompareStringW
 0001:00001474       System.CompareString
 0001:0000147C       System.CreateThread
 0001:00001484       System.ExitProcess
 0001:0000148C       System.MessageBoxA
 0001:00001494       System.FindClose
 0001:0000149C       System.FindFirstFile
 0001:000014A4       System.FreeLibrary
 0001:000014AC       System.GetCommandLine
 0001:000014B4       System.GetLastError
 0001:000014BC       System.GetLocaleInfo
 0001:000014C4       System.GetUserDefaultUILanguage
 0001:000014CC       System.GetModuleFileName
 0001:000014D4       System.GetModuleHandle
 0001:000014DC       System.GetProcAddress
 0001:000014E4       System.GetStartupInfo
 0001:000014EC       System.GetSystemDefaultUILanguage
 0001:000014F4       System.IsValidLocale
 0001:000014FC       System.LoadLibraryEx
 0001:00001504       System.LoadString
 0001:0000150C       System.lstrcpyn
 0001:00001514       System.@strlen
 0001:0000151C       System.MultiByteToWideChar
 0001:00001524       System.RegCloseKey
 0001:0000152C       System.RegOpenKeyEx
 0001:00001534       System.RegQueryValueEx
 0001:0000153C       System.WideCharToMultiByte
 0001:00001544       System.VirtualQuery
 0001:0000154C       System.SysAllocStringLen
 0001:00001554       System.SysReAllocStringLen
 0001:0000155C       System.SysFreeString
 0001:00001564       System.GetCurrentThreadId
 0001:0000156C       System.GetVersion
 0001:00001574       System.GetSystemInfo
 0001:0000157C       System.GetCmdShow
 0001:000015A8       System.VirtualAlloc
 0001:000015B0       System.VirtualFree
 0001:000015B8       System.Sleep
 0001:00001708       System.LockCmpxchg
 0001:00001710       System.Move12
 0001:00001724       System.Move20
 0001:00001744       System.Move28
 0001:00001770       System.Move36
 0001:00001790       System.Move44
 0001:000017B4       System.Move52
 0001:000017E0       System.Move60
 0001:00001810       System.Move68
 0001:00001848       System.MoveX16L4
 0001:00001878       System.MoveX8L4
 0001:00001894       System.RemoveMediumFreeBlock
 0001:000018D4       System.InsertMediumBlockIntoBin
 0001:00001934       System.BinMediumSequentialFeedRemainder
 0001:000019A0       System.AllocNewSequentialFeedMediumPool
 0001:00001A18       System.LockLargeBlocks
 0001:00001A60       System.AllocateLargeBlock
 0001:00001AC4       System.FreeLargeBlock
 0001:00001B68       System.ReallocateLargeBlock
 0001:00001CB4       System.SysGetMem
 0001:00002038       System.SysFreeMem
 0001:00002230       System.SysReallocMem
 0001:00002548       System.SysAllocMem
 0001:0000257C       System.NextMediumBlock
 0001:000025A0       System.GetFirstMediumBlockInPool
 0001:000025E0       System.GetFirstAndLastSmallBlockInPool
 0001:0000261C       System.CardinalToStrBuf
 0001:00002738       System.AppendStringToBuffer
 0001:00002750       System.AppendClassNameToBuffer
 0001:00002784       System.IsValidVMTAddress
 0001:00002800       System.InternalIsValidClass
 0001:00002880       System.GetObjectClass
 0001:000028A8       System.LockExpectedMemoryLeaksList
 0001:0000291C       System.SysRegisterExpectedMemoryLeak
 0001:0000295C       System.SysUnregisterExpectedMemoryLeak
 0001:000029B4       System.CheckSmallBlockPoolForLeaks
 0001:00002B74       System.ScanForMemoryLeaks
 0001:00002F58       System.BuildBlockTypeLookupTable
 0001:00002F9C       System.InitializeMemoryManager
 0001:000030C4       System.FreeAllMemory
 0001:00003154       System.FinalizeMemoryManager
 0001:000031A8       System.AllocMem
 0001:000031C0       System.@GetMem
 0001:000031DC       System.@FreeMem
 0001:000031F4       System.@ReallocMem
 0001:00003244       System.ExceptObject
 0001:00003264       System.AcquireExceptionObject
 0001:00003298       System.RaiseList
 0001:000032A4       System.RunErrorAt
 0001:000032B0       System.ErrorAt
 0001:000032FC       System.Error
 0001:00003308       System.@_IOTest
 0001:00003328       System.SetInOutRes
 0001:00003338       System.IOResult
 0001:00003358       System.Move
 0001:00003458       System.GetParamStr
 0001:00003514       System.ParamCount
 0001:00003574       System.Set8087CW
 0001:00003584       System.Get8087CW
 0001:0000358C       System.@ROUND
 0001:00003598       System.@AbstractError
 0001:000035B4       System.OpenText
 0001:00003610       System.@RewritText
 0001:0000361C       System.TextIn
 0001:00003658       System.FileNOPProc
 0001:0000365C       System.TextOut
 0001:00003698       System.InternalClose
 0001:000036A8       System.TextClose
 0001:000036C8       System.TextOpen
 0001:00003878       System.InternalFlush
 0001:000038C0       System.Flush
 0001:000038CC       System.@Flush
 0001:000038D8       System.@Close
 0001:00003930       System.@AStrCmp
 0001:000039A0       System.@FillChar
 0001:00003A3C       System.@ValLong
 0001:00003B40       System.TryOpenForOutput
 0001:00003B84       System.@WriteBytes
 0001:00003BD8       System.@WriteSpaces
 0001:00003C54       System.@WriteLn
 0001:00003C9C       System.@_CToPasStr
 0001:00003CA8       System.@_CLenToPasStr
 0001:00003CD8       System.@SetElem
 0001:00003CFC       System.@SetUnion
 0001:00003D08       System.@SetSub
 0001:00003D18       System.FPower10
 0001:00003D20       System.@Pow10
 0001:00004004       System.@FpuInit
 0001:00004010       System.@BoundErr
 0001:00004018       System.@IntOver
 0001:00004020       System.TObject.ClassType
 0001:00004028       System.TObject.ClassName
 0001:00004040       System.TObject.ClassNameIs
 0001:000040DC       System.TObject.ClassParent
 0001:000040E8       System.TObject.NewInstance
 0001:00004104       System.TObject.FreeInstance
 0001:00004118       System.TObject.InstanceSize
 0001:00004120       System.TObject.Create
 0001:00004140       System.TObject.Destroy
 0001:00004150       System.TObject.Free
 0001:0000415C       System.TObject.InitInstance
 0001:000041B4       System.TObject.CleanupInstance
 0001:000041DC       System.InvokeImplGetter
 0001:0000420C       System.TObject.Equals
 0001:00004214       System.TObject.GetHashCode
 0001:00004218       System.TObject.GetInterface
 0001:000042E8       System.TObject.GetInterfaceEntry
 0001:0000432C       System.TObject.GetInterfaceTable
 0001:00004334       System.TObject.UnitName
 0001:0000436C       System.@IsClass
 0001:00004390       System.FindDynaMethod
 0001:000043C0       System.@CallDynaInst
 0001:000043D8       System.TObject.InheritsFrom
 0001:000043EC       System.TObject.ClassInfo
 0001:000043F4       System.TObject.SafeCallException
 0001:000043FC       System.TObject.ToString
 0001:00004410       System.TObject.DefaultHandler
 0001:00004414       System.TObject.AfterConstruction
 0001:00004418       System.TObject.BeforeDestruction
 0001:0000441C       System.TObject.Dispatch
 0001:00004444       System.UTF8Compare
 0001:000044BC       System.UTF8ShortStringToString
 0001:000044D0       System.TObject.MethodAddress
 0001:00004540       System.TObject.MethodAddress
 0001:00004568       System.TObject.MethodName
 0001:000045B4       System.TObject.FieldAddress
 0001:00004628       System.TObject.FieldAddress
 0001:00004650       System.@ClassCreate
 0001:000046A0       System.@ClassDestroy
 0001:000046A8       System.@AfterConstruction
 0001:000046F8       System.@BeforeDestruction
 0001:00004708       System.TMonitor.Destroy
 0001:00004720       System.TMonitor.Destroy
 0001:0000474C       System.TMonitor.GetFieldAddress
 0001:0000475C       System.NotifyReRaise
 0001:00004778       System.NotifyNonDelphiException
 0001:0000479C       System.NotifyExcept
 0001:000047B4       System.NotifyOnExcept
 0001:000047C8       System.NotifyAnyExcept
 0001:000047DC       System.CheckJmp
 0001:000047FC       System.NotifyExceptFinally
 0001:00004824       System.NotifyTerminate
 0001:00004840       System.NotifyUnhandled
 0001:00004860       System.@HandleAnyException
 0001:0000498C       System.@HandleOnException
 0001:00004B14       System.@HandleFinally
 0001:00004BBC       System.@HandleFinallyInternal
 0001:00004BF4       System.@HandleAutoException
 0001:00004CB8       System.@RaiseExcept
 0001:00004D28       System.@RaiseAgain
 0001:00004D7C       System.@DoneExcept
 0001:00004DAC       System.@TryFinallyExit
 0001:00004DC4       System.MapToRunError
 0001:00004E64       System.@ExceptionHandler
 0001:00004F04       System.SetExceptionHandler
 0001:00004F24       System.UnsetExceptionHandler
 0001:00004F4C       System.FinalizeUnits
 0001:00004FB4       System.InitUnits
 0001:00005020       System.@StartExe
 0001:00005068       System.LoadResStringA
 0001:000050BC       System.LoadResStringW
 0001:0000510C       System.LoadResStringU
 0001:00005120       System.@InitResStringImports
 0001:00005164       System.@InitImports
 0001:000051A8       System.MakeErrorMessage
 0001:00005214       System.ExitDll
 0001:00005240       System.WriteErrorMessage
 0001:000052D0       System.@Halt0
 0001:000053DC       System.@Halt
 0001:000053E8       System.@RunError
 0001:000053F4       System.ThreadWrapper
 0001:0000542C       System.BeginThread
 0001:0000548C       System.@LStrClr
 0001:000054B0       System.@LStrArrayClr
 0001:000054E0       System.@LStrAsg
 0001:0000553C       System.@LStrLAsg
 0001:00005578       System.@NewAnsiString
 0001:000055C4       System.@LStrFromPCharLen
 0001:000055FC       System.CharFromWChar
 0001:00005628       System.CharFromWChar
 0001:00005644       System.WCharFromChar
 0001:00005660       System.EnsureAnsiString
 0001:00005670       System.EnsureUnicodeString
 0001:00005678       System.@InternalUStrFromLStr
 0001:00005688       System.@EnsureUnicodeString
 0001:000056A8       System.@InternalLStrFromUStr
 0001:000056B8       System.@EnsureAnsiString
 0001:000056DC       System.@LStrFromPWCharLen
 0001:00005760       System.@LStrFromChar
 0001:00005770       System.@LStrFromPChar
 0001:000057A4       System.@LStrFromPWChar
 0001:000057E4       System.@LStrFromString
 0001:000057F4       System.@LStrFromArray
 0001:00005814       System.@LStrFromWStr
 0001:0000582C       System.@LStrToString
 0001:00005850       System.@LStrLen
 0001:0000585C       System.@PCharLen
 0001:00005884       System.@LStrCat
 0001:0000594C       System.@LStrCat3
 0001:00005A3C       System.@LStrCatN
 0001:00005B78       System.@LStrEqual
 0001:00005BEC       System.@LStrAddRef
 0001:00005BFC       System.@LStrToPChar
 0001:00005C14       System.InternalUniqueString
 0001:00005C6C       System.UniqueString
 0001:00005C74       System.@UniqueStringA
 0001:00005C7C       System.@LStrCopy
 0001:00005CE0       System.@LStrDelete
 0001:00005D2C       System.@LStrInsert
 0001:00005D9C       System.Pos
 0001:00005EE0       System.@LStrSetLength
 0001:00005F78       System.@Write0LString
 0001:00005F80       System.@WriteLString
 0001:00005FDC       System.WStrError
 0001:00005FE4       System.@NewWideString
 0001:00005FFC       System.WStrSet
 0001:0000600C       System.@WStrClr
 0001:00006024       System.@WStrArrayClr
 0001:00006048       System.@WStrAsg
 0001:00006070       System.InternalWStrFromPCharLen
 0001:0000610C       System.@WStrFromPCharLen
 0001:0000611C       System.@WStrFromPWCharLen
 0001:00006140       System.@WStrFromPChar
 0001:00006170       System.@WStrFromPWChar
 0001:000061AC       System.@WStrFromLStr
 0001:000061D8       System.@WStrToPWChar
 0001:000061E8       System.@WStrCmp
 0001:0000626C       System.@WStrEqual
 0001:00006274       System.@WStrCopy
 0001:000062C0       System.@WStrSetLength
 0001:00006314       System.@UStrAddRef
 0001:0000631C       System.@UStrClr
 0001:00006324       System.@UStrArrayClr
 0001:0000632C       System.@UStrAsg
 0001:00006380       System.@UStrLAsg
 0001:000063B8       System.@UStrToPWChar
 0001:000063C4       System.InternalUStrFromPCharLen
 0001:00006458       System.@UStrFromPCharLen
 0001:00006468       System.@UStrFromPWCharLen
 0001:00006498       System.@UStrFromWChar
 0001:000064A8       System.@UStrFromPChar
 0001:000064D8       System.@UStrFromPWChar
 0001:00006514       System.@UStrFromArray
 0001:0000652C       System.@UStrFromWArray
 0001:00006548       System.@UStrFromLStr
 0001:00006570       System.@LStrFromUStr
 0001:00006594       System.@UStrFromWStr
 0001:000065A8       System.@WStrFromUStr
 0001:000065D0       System.@UStrToString
 0001:00006690       System.@UStrLen
 0001:0000669C       System.@UStrSetLength
 0001:00006734       System.@UStrCat
 0001:000067F4       System.@UStrCat3
 0001:000068D8       System.@UStrCatN
 0001:000069F8       System.@UStrEqual
 0001:00006A60       System.@UStrCopy
 0001:00006B30       System.@UStrDelete
 0001:00006BA4       System.InternalUniqueStringU
 0001:00006BF8       System.UniqueString
 0001:00006C00       System.@UniqueStringU
 0001:00006C08       System.@NewUnicodeString
 0001:00006C4C       System.Pos
 0001:00006C98       System.SetCodePage
 0001:00006E84       System.@InitializeRecord
 0001:00006EB8       System.@InitializeArray
 0001:00006F50       System.@Initialize
 0001:00006F5C       System.@FinalizeRecord
 0001:00006F94       System.@VarClr
 0001:00006FAC       System.@FinalizeArray
 0001:000070BC       System.@Finalize
 0001:000070C8       System.@VarCopy
 0001:000070E0       System.@CopyRecord
 0001:00007220       System.@CopyArray
 0001:00007338       System.@New
 0001:0000734C       System.@Dispose
 0001:0000735C       System.@DispCallByIDError
 0001:00007364       System.@_llmul
 0001:00007388       System.@_lldiv
 0001:0000741C       System.@_llmod
 0001:00007498       System.@_llshl
 0001:000074B8       System.@ValInt64
 0001:00007830       System.@DynArrayLength
 0001:00007838       System.@DynArrayHigh
 0001:00007840       System.CopyArray
 0001:00007850       System.FinalizeArray
 0001:00007858       System.DynArrayClear
 0001:00007860       System.DynArraySetLength
 0001:000079F8       System.@DynArraySetLength
 0001:00007A04       System.@DynArrayCopy
 0001:00007A24       System.@DynArrayCopyRange
 0001:00007B18       System.@DynArrayClear
 0001:00007B54       System.@DynArrayAsg
 0001:00007B7C       System.@DynArrayAddRef
 0001:00007B88       System.DelayLoadResourceModule
 0001:00007BD0       System.FindResourceHInstance
 0001:00007E34       System.InitializeLocaleData
 0001:00007F18       System.FinalizeLocaleDate
 0001:00007F24       System.LastHyphenPos
 0001:00007FC4       System.ConvertResToUILanguages
 0001:000080B4       System.GetPreferredLangForOldOS
 0001:0000824C       System.GetUILanguages
 0001:00008450       System.FindBS
 0001:00008474       System.ToLongPath
 0001:00008670       System.GetLocaleOverride
 0001:00008910       System.LoadResourceModule
 0001:000089DC       System.ResouceDLLExists
 0001:00008A14       System.LoadLanguageList
 0001:00008AC4       System.Load3LettersModule
 0001:00008B20       System.GetResourceModuleName
 0001:00008CD0       System.EnumResourceModules
 0001:00008CD8       System.EnumResourceModules
 0001:00008D04       System.AddModuleUnloadProc
 0001:00008D0C       System.RemoveModuleUnloadProc
 0001:00008D14       System.AddModuleUnloadProc
 0001:00008D34       System.RemoveModuleUnloadProc
 0001:00008D98       System.NotifyModuleUnload
 0001:00008DF4       System.RegisterModule
 0001:00008E04       System.UnregisterModule
 0001:00008E74       System.@IntfClear
 0001:00008E8C       System.@IntfCopy
 0001:00008EB8       System.@IntfCast
 0001:00008EE8       System.@IntfAddRef
 0001:00008EF4       System.TInterfacedObject.AfterConstruction
 0001:00008F00       System.TInterfacedObject.BeforeDestruction
 0001:00008F10       System.TInterfacedObject.NewInstance
 0001:00008F20       System.TInterfacedObject.QueryInterface
 0001:00008F48       System.TInterfacedObject._AddRef
 0001:00008F5C       System.TInterfacedObject._Release
 0001:00008F84       System.FreeMemory
 0001:00008F9C       System.UnicodeToUtf8
 0001:0000902C       System.Utf8ToUnicode
 0001:000090B0       System.UTF8Encode
 0001:000091D0       System.UTF8Encode
 0001:00009248       System.UTF8EncodeToShortString
 0001:000092D4       System.UTF8Decode
 0001:000093A8       System.UTF8ToUnicodeString
 0001:00009480       System.UTF8ToUnicodeString
 0001:00009514       System.UTF8ToString
 0001:00009528       System.LoadResString
 0001:00009594       System.GetACP
 0001:0000959C       System.GetCPUCount
 0001:000095B0       System.SetUtf8CompareLocale
 0001:000095EC       System.LocalAlloc
 0001:000095F4       System.LocalFree
 0001:000095FC       System.LoadLibraryA
 0001:00009604       System.lstrcmpiA
 0001:0000960C       System.@memcpy
 0001:00009620       System.@memset
 0001:00009634       System...
 0001:0000971A       System.@_delayLoadHelper
 0001:00009986       System.@_FUnloadDelayLoadedDLL
 0001:000099F0       System.@InitDelayHelp
 0001:000099FF       System.@ShutdownDelayHelp
 0001:00009A18       System.Finalization
 0001:00009A8C       SysInit.GetModuleHandle
 0001:00009A94       SysInit.LocalAlloc
 0001:00009A9C       SysInit.TlsGetValue
 0001:00009AA4       SysInit.TlsSetValue
 0001:00009AAC       SysInit.AllocTlsBuffer
 0001:00009AB8       SysInit.GetTlsSize
 0001:00009AC0       SysInit.InitThreadTLS
 0001:00009B04       SysInit.@GetTls
 0001:00009B44       SysInit.InitializeModule
 0001:00009B50       SysInit.@InitExe
 0001:0000A330       Windows.AllocateAndInitializeSid
 0001:0000A338       Windows.FreeSid
 0001:0000A340       Windows.GetUserNameA
 0001:0000A348       Windows.InitializeSecurityDescriptor
 0001:0000A350       Windows.RegCloseKey
 0001:0000A358       Windows.RegCreateKeyExA
 0001:0000A360       Windows.RegDeleteValueA
 0001:0000A368       Windows.RegEnumKeyA
 0001:0000A370       Windows.RegOpenKeyEx
 0001:0000A378       Windows.RegOpenKeyExA
 0001:0000A380       Windows.RegQueryInfoKey
 0001:0000A388       Windows.RegQueryValueEx
 0001:0000A390       Windows.RegQueryValueExA
 0001:0000A398       Windows.RegSetValueExA
 0001:0000A3A0       Windows.SetSecurityDescriptorDacl
 0001:0000A3A8       Windows.Beep
 0001:0000A3B0       Windows.CloseHandle
 0001:0000A3B8       Windows.CompareString
 0001:0000A3C0       Windows.CompareStringW
 0001:0000A3C8       Windows.CopyFileA
 0001:0000A3D0       Windows.CreateDirectoryA
 0001:0000A3D8       Windows.CreateEvent
 0001:0000A3E0       Windows.CreateFile
 0001:0000A3E8       Windows.CreateFileA
 0001:0000A3F0       Windows.CreateFileW
 0001:0000A3F8       Windows.CreateFileMapping
 0001:0000A400       Windows.CreateFileMappingA
 0001:0000A408       Windows.CreateFileMappingW
 0001:0000A410       Windows._CreateMutex
 0001:0000A418       Windows.CreateMutex
 0001:0000A438       Windows._CreateMutexA
 0001:0000A440       Windows.CreateMutexA
 0001:0000A460       Windows.CreatePipe
 0001:0000A468       Windows.CreateProcess
 0001:0000A470       Windows.CreateProcessA
 0001:0000A478       Windows.CreateRemoteThread
 0001:0000A480       Windows.CreateThread
 0001:0000A488       Windows.DeleteCriticalSection
 0001:0000A490       Windows.DeleteFileA
 0001:0000A498       Windows.DeleteFileW
 0001:0000A4A0       Windows.DuplicateHandle
 0001:0000A4A8       Windows.EnterCriticalSection
 0001:0000A4B0       Windows.EnumCalendarInfo
 0001:0000A4B8       Windows.ExitProcess
 0001:0000A4C0       Windows.ExitThread
 0001:0000A4C8       Windows.ExpandEnvironmentStringsA
 0001:0000A4D0       Windows.FileTimeToDosDateTime
 0001:0000A4D8       Windows.FileTimeToLocalFileTime
 0001:0000A4E0       Windows.FileTimeToSystemTime
 0001:0000A4E8       Windows.FindClose
 0001:0000A4F0       Windows.FindFirstFileA
 0001:0000A4F8       Windows.FindNextFileA
 0001:0000A500       Windows.FindResource
 0001:0000A508       Windows.FindResourceA
 0001:0000A510       Windows.FormatMessage
 0001:0000A518       Windows.FormatMessageA
 0001:0000A520       Windows.FreeLibrary
 0001:0000A528       Windows.InterlockedCompareExchange
 0001:0000A530       Windows.InterlockedCompareExchangePointer
 0001:0000A548       Windows.InterlockedDecrement
 0001:0000A550       Windows.InterlockedExchange
 0001:0000A558       Windows.InterlockedIncrement
 0001:0000A560       Windows.FreeResource
 0001:0000A568       Windows.GetCPInfo
 0001:0000A570       Windows.GetCommandLine
 0001:0000A578       Windows.GetCommandLineA
 0001:0000A580       Windows.GetComputerNameA
 0001:0000A588       Windows.GetCurrentProcess
 0001:0000A590       Windows.GetCurrentProcessId
 0001:0000A598       Windows.GetCurrentThread
 0001:0000A5A0       Windows.GetCurrentThreadId
 0001:0000A5A8       Windows.GetDateFormat
 0001:0000A5B0       Windows.GetDiskFreeSpace
 0001:0000A5B8       Windows.GetDiskFreeSpaceA
 0001:0000A5C0       Windows.GetFileAttributesA
 0001:0000A5C8       Windows.GetFileAttributesW
 0001:0000A5D0       Windows.GetFileSize
 0001:0000A5D8       Windows.GetFileTime
 0001:0000A5E0       Windows.GetFullPathName
 0001:0000A5E8       Windows.GetLastError
 0001:0000A5F0       Windows.GetLocalTime
 0001:0000A5F8       Windows.GetLocaleInfo
 0001:0000A600       Windows.GetLocaleInfoA
 0001:0000A608       Windows.GetModuleFileName
 0001:0000A610       Windows.GetModuleFileNameA
 0001:0000A618       Windows.GetModuleFileNameW
 0001:0000A620       Windows.GetModuleHandle
 0001:0000A628       Windows.GetModuleHandleA
 0001:0000A630       Windows.GetModuleHandleW
 0001:0000A638       Windows.GetPriorityClass
 0001:0000A640       Windows.GetProcAddress
 0001:0000A648       Windows.GetProcAddress
 0001:0000A6BC       Windows.GetStdHandle
 0001:0000A6C4       Windows.GetSystemDirectory
 0001:0000A6CC       Windows.GetSystemTime
 0001:0000A6D4       Windows.GetTempPathA
 0001:0000A6DC       Windows.GetThreadContext
 0001:0000A6E4       Windows.GetThreadLocale
 0001:0000A6EC       Windows.GetThreadPriority
 0001:0000A6F4       Windows.GetTickCount
 0001:0000A6FC       Windows.GetVersion
 0001:0000A704       Windows.GetVersionEx
 0001:0000A70C       Windows.GetVersionExA
 0001:0000A714       Windows.GetVersionExW
 0001:0000A71C       Windows.GetWindowsDirectoryA
 0001:0000A724       Windows.GlobalAlloc
 0001:0000A72C       Windows.GlobalFree
 0001:0000A734       Windows.GlobalLock
 0001:0000A73C       Windows.GlobalHandle
 0001:0000A744       Windows.GlobalMemoryStatus
 0001:0000A74C       Windows.GlobalReAlloc
 0001:0000A754       Windows.GlobalUnlock
 0001:0000A75C       Windows.InitializeCriticalSection
 0001:0000A764       Windows.IsBadReadPtr
 0001:0000A76C       Windows.LeaveCriticalSection
 0001:0000A774       Windows.LoadLibrary
 0001:0000A77C       Windows.LoadLibraryExA
 0001:0000A784       Windows.LoadResource
 0001:0000A78C       Windows.LocalAlloc
 0001:0000A794       Windows.LocalFree
 0001:0000A79C       Windows.LocalSize
 0001:0000A7A4       Windows.LockResource
 0001:0000A7AC       Windows.MapViewOfFile
 0001:0000A7B4       Windows.MultiByteToWideChar
 0001:0000A7BC       Windows.OpenFileMapping
 0001:0000A7C4       Windows.OpenFileMappingA
 0001:0000A7CC       Windows.OpenProcess
 0001:0000A7D4       Windows.QueryPerformanceCounter
 0001:0000A7DC       Windows.QueryPerformanceFrequency
 0001:0000A7E4       Windows.RaiseException
 0001:0000A7EC       Windows.ReadFile
 0001:0000A7F4       Windows.ReadProcessMemory
 0001:0000A7FC       Windows.ReleaseMutex
 0001:0000A804       Windows.RemoveDirectoryA
 0001:0000A80C       Windows.ResetEvent
 0001:0000A814       Windows.ResumeThread
 0001:0000A81C       Windows.SetEndOfFile
 0001:0000A824       Windows.SetEvent
 0001:0000A82C       Windows.SetFileAttributesA
 0001:0000A834       Windows.SetFilePointer
 0001:0000A83C       Windows.SetLastError
 0001:0000A844       Windows.SetThreadPriority
 0001:0000A84C       Windows.SetUnhandledExceptionFilter
 0001:0000A854       Windows.SignalObjectAndWait
 0001:0000A85C       Windows.SizeofResource
 0001:0000A864       Windows.Sleep
 0001:0000A86C       Windows.SuspendThread
 0001:0000A874       Windows.SystemTimeToFileTime
 0001:0000A87C       Windows.TerminateProcess
 0001:0000A884       Windows.TerminateThread
 0001:0000A88C       Windows.UnmapViewOfFile
 0001:0000A894       Windows.VirtualAlloc
 0001:0000A89C       Windows.VirtualFree
 0001:0000A8A4       Windows.VirtualProtect
 0001:0000A8AC       Windows.VirtualQuery
 0001:0000A8B4       Windows.VirtualQueryEx
 0001:0000A8BC       Windows.WaitForSingleObject
 0001:0000A8C4       Windows.WideCharToMultiByte
 0001:0000A8CC       Windows.WriteFile
 0001:0000A8D4       Windows.lstrcmpA
 0001:0000A8DC       Windows.lstrlenW
 0001:0000A8E4       Windows.GetFileVersionInfoA
 0001:0000A8EC       Windows.GetFileVersionInfoW
 0001:0000A8F4       Windows.GetFileVersionInfoSizeA
 0001:0000A8FC       Windows.GetFileVersionInfoSizeW
 0001:0000A904       Windows.VerQueryValueA
 0001:0000A90C       Windows.BitBlt
 0001:0000A914       Windows.CombineRgn
 0001:0000A91C       Windows.CreateCompatibleDC
 0001:0000A924       Windows.CreateDC
 0001:0000A92C       Windows.CreateDIBSection
 0001:0000A934       Windows.CreateFont
 0001:0000A93C       Windows.CreateFontA
 0001:0000A944       Windows.CreatePen
 0001:0000A94C       Windows.CreateRectRgnIndirect
 0001:0000A954       Windows.CreateSolidBrush
 0001:0000A95C       Windows.DeleteDC
 0001:0000A964       Windows.DeleteObject
 0001:0000A96C       Windows.EndDoc
 0001:0000A974       Windows.EndPage
 0001:0000A97C       Windows.GdiFlush
 0001:0000A984       Windows.GetDeviceCaps
 0001:0000A98C       Windows.GetObject
 0001:0000A994       Windows.GetRgnBox
 0001:0000A99C       Windows.GetStockObject
 0001:0000A9A4       Windows.GetTextExtentPoint32A
 0001:0000A9AC       Windows.GetTextFaceA
 0001:0000A9B4       Windows.GetTextMetrics
 0001:0000A9BC       Windows.LineTo
 0001:0000A9C4       Windows.MoveToEx
 0001:0000A9CC       Windows.SelectClipRgn
 0001:0000A9D4       Windows.SelectObject
 0001:0000A9DC       Windows.SetBkColor
 0001:0000A9E4       Windows.SetBkMode
 0001:0000A9EC       Windows.SetMapMode
 0001:0000A9F4       Windows.SetTextColor
 0001:0000A9FC       Windows.StartDocA
 0001:0000AA04       Windows.StartPage
 0001:0000AA0C       Windows.TextOutA
 0001:0000AA14       Windows.AttachThreadInput
 0001:0000AA1C       Windows.BeginPaint
 0001:0000AA24       Windows.BringWindowToTop
 0001:0000AA2C       Windows.CallWindowProc
 0001:0000AA34       Windows.CharNext
 0001:0000AA3C       Windows.CharUpperBuff
 0001:0000AA44       Windows.CloseClipboard
 0001:0000AA4C       Windows.DefWindowProcA
 0001:0000AA54       Windows.DefWindowProcW
 0001:0000AA5C       Windows.DestroyWindow
 0001:0000AA64       Windows.DispatchMessage
 0001:0000AA6C       Windows.DrawFocusRect
 0001:0000AA74       Windows.DrawFrameControl
 0001:0000AA7C       Windows.DrawIconEx
 0001:0000AA84       Windows.DrawTextA
 0001:0000AA8C       Windows.EmptyClipboard
 0001:0000AA94       Windows.EnableWindow
 0001:0000AA9C       Windows.EndPaint
 0001:0000AAA4       Windows.EnumWindows
 0001:0000AAAC       Windows.FillRect
 0001:0000AAB4       Windows.FindWindow
 0001:0000AABC       Windows.FrameRect
 0001:0000AAC4       Windows.GetCapture
 0001:0000AACC       Windows.GetClassNameA
 0001:0000AAD4       Windows.GetClientRect
 0001:0000AADC       Windows.GetCursor
 0001:0000AAE4       Windows.GetCursorPos
 0001:0000AAEC       Windows.GetDC
 0001:0000AAF4       Windows.GetFocus
 0001:0000AAFC       Windows.GetIconInfo
 0001:0000AB04       Windows.GetKeyState
 0001:0000AB0C       Windows.GetMessage
 0001:0000AB14       Windows.GetMessageA
 0001:0000AB1C       Windows.GetMessageW
 0001:0000AB24       Windows.GetNextWindow
 0001:0000AB2C       Windows.GetSysColor
 0001:0000AB34       Windows.GetSysColorBrush
 0001:0000AB3C       Windows.GetSystemMenu
 0001:0000AB44       Windows.GetSystemMetrics
 0001:0000AB4C       Windows.GetWindowDC
 0001:0000AB54       Windows.GetWindowLong
 0001:0000AB5C       Windows.GetWindowPlacement
 0001:0000AB64       Windows.GetWindowRect
 0001:0000AB6C       Windows.GetWindowTextA
 0001:0000AB74       Windows.GetWindowThreadProcessId
 0001:0000AB7C       Windows.InflateRect
 0001:0000AB84       Windows.InvalidateRect
 0001:0000AB8C       Windows.IsDialogMessage
 0001:0000AB94       Windows.IsIconic
 0001:0000AB9C       Windows.IsWindow
 0001:0000ABA4       Windows.IsWindowEnabled
 0001:0000ABAC       Windows.IsWindowUnicode
 0001:0000ABB4       Windows.IsWindowVisible
 0001:0000ABBC       Windows.KillTimer
 0001:0000ABC4       Windows.LoadCursor
 0001:0000ABCC       Windows.LoadImageA
 0001:0000ABD4       Windows.LoadString
 0001:0000ABDC       Windows.MessageBeep
 0001:0000ABE4       Windows.MessageBox
 0001:0000ABEC       Windows.MessageBoxA
 0001:0000ABF4       Windows.OffsetRect
 0001:0000ABFC       Windows.OpenClipboard
 0001:0000AC04       Windows.PeekMessage
 0001:0000AC0C       Windows.PeekMessageA
 0001:0000AC14       Windows.PeekMessageW
 0001:0000AC1C       Windows.PostMessage
 0001:0000AC24       Windows.PostMessageA
 0001:0000AC2C       Windows.PostQuitMessage
 0001:0000AC34       Windows.PostThreadMessage
 0001:0000AC3C       Windows.PostThreadMessageA
 0001:0000AC44       Windows.RegisterClassA
 0001:0000AC4C       Windows.RegisterWindowMessage
 0001:0000AC54       Windows.ReleaseCapture
 0001:0000AC5C       Windows.ReleaseDC
 0001:0000AC64       Windows.RemoveMenu
 0001:0000AC6C       Windows.ScreenToClient
 0001:0000AC74       Windows.SendMessage
 0001:0000AC7C       Windows.SendMessageA
 0001:0000AC84       Windows.SendMessageTimeoutA
 0001:0000AC8C       Windows.SetActiveWindow
 0001:0000AC94       Windows.SetCapture
 0001:0000AC9C       Windows.SetClipboardData
 0001:0000ACA4       Windows.SetCursor
 0001:0000ACAC       Windows.SetFocus
 0001:0000ACB4       Windows.SetForegroundWindow
 0001:0000ACBC       Windows.SetRect
 0001:0000ACC4       Windows.SetTimer
 0001:0000ACCC       Windows.SetWindowLongA
 0001:0000ACD4       Windows.SetWindowPos
 0001:0000ACDC       Windows.SetWindowTextA
 0001:0000ACE4       Windows.ShowWindow
 0001:0000ACEC       Windows.SystemParametersInfo
 0001:0000ACF4       Windows.TranslateMessage
 0001:0000ACFC       Windows.WindowFromPoint
 0001:0000AD04       Windows.ZeroMemory
 0001:0000AD0C       Windows.UnlockResource
 0001:0000AD10       Windows.GlobalAllocPtr
 0001:0000AD20       Windows.GlobalReAllocPtr
 0001:0000AD3C       Windows.GlobalFreePtr
 0001:0000AD50       Windows._CreateWindowEx
 0001:0000AD58       Windows._CreateWindowExA
 0001:0000AD60       Windows.CreateWindowExA
 0001:0000ADB8       Windows.CreateWindow
 0001:0000AE10       Windows.CreateWindowA
 0001:0000AE68       Windows.InitVersionInfo
 0001:0000AEA4       Windows.Finalization
 0001:0000B084       madNVPrgrAlert..TIProgressAlert
 0001:0000B5D4       madNVPrgrAlert.TIProgressAlert.Create
 0001:0000B674       madNVPrgrAlert.TIProgressAlert.Destroy
 0001:0000B6C4       madNVPrgrAlert.TIProgressAlert.GetTitle
 0001:0000B6D8       madNVPrgrAlert.TIProgressAlert.GetPosition
 0001:0000B6DC       madNVPrgrAlert.TIProgressAlert.GetCurrentArea
 0001:0000B6E0       madNVPrgrAlert.TIProgressAlert.SetTitle
 0001:0000B74C       madNVPrgrAlert.TIProgressAlert.AddArea
 0001:0000B814       madNVPrgrAlert.TIProgressAlert.ClearAreas
 0001:0000B83C       madNVPrgrAlert.TIProgressAlert.AreaDone
 0001:0000B848       madNVPrgrAlert.TIProgressAlert.SetCurrentArea
 0001:0000B8C0       madNVPrgrAlert.TIProgressAlert.ProcessMessages
 0001:0000B908       madNVPrgrAlert.TIProgressAlert.SetPosition
 0001:0000B9E4       madNVPrgrAlert.DrawGraphic
 0001:0000BC40       madNVPrgrAlert.ProgressAlertWndProc
 0001:0000BD30       madNVPrgrAlert.TIProgressAlert.Show
 0001:0000C258       madNVPrgrAlert.TIProgressAlert.Close
 0001:0000C2D8       madNVPrgrAlert.NewProgressAlert
 0001:0000C498       madTypes..MadException
 0001:0000C5C0       madTypes.MadException.Create
 0001:0000C614       madStrings.TrimStr
 0001:0000C684       madStrings.RetTrimStr
 0001:0000C6FC       madStrings.KillChar
 0001:0000C77C       madStrings.KillChars
 0001:0000C814       madStrings.Replace
 0001:0000CC3C       madStrings.ReplaceStr
 0001:0000CC54       madStrings.ReplaceText
 0001:0000CC6C       madStrings.RetDelete
 0001:0000CC9C       madStrings.RetDelete
 0001:0000CCCC       madStrings.Keep
 0001:0000CCE8       madStrings.CopyR
 0001:0000CD74       madStrings.UpChar
 0001:0000CD90       madStrings.UpStr
 0001:0000CE48       madStrings.LowChar
 0001:0000CE54       madStrings.LowStr
 0001:0000CF0C       madStrings.BooleanToChar
 0001:0000CF50       madStrings.IsTextEqual
 0001:0000D034       madStrings.IsTextEqual
 0001:0000D19C       madStrings.CompareText
 0001:0000D298       madStrings.PosStr
 0001:0000D384       madStrings.PosText
 0001:0000D470       madStrings.GetPCharLen
 0001:0000D488       madStrings.PosPChar
 0001:0000D6C8       madStrings.GetPCharLen
 0001:0000D6E4       madStrings.PosPChar
 0001:0000D9E8       madStrings.PosStrIs1
 0001:0000DB38       madStrings.PosStrIs1
 0001:0000DC80       madStrings.PosTextIs1
 0001:0000DDCC       madStrings.PosTextIs1
 0001:0000DF10       madStrings.PosChars
 0001:0000DFFC       madStrings._FillStr
 0001:0000E0D4       madStrings._FillStr
 0001:0000E1E4       madStrings.FillStr
 0001:0000E238       madStrings.FillStr
 0001:0000E28C       madStrings.IntToStr
 0001:0000E350       madStrings.IntToStr
 0001:0000E448       madStrings.IntToHex
 0001:0000E50C       madStrings.IntToHex
 0001:0000E5B8       madStrings.IntToStrEx
 0001:0000E60C       madStrings.IntToHexEx
 0001:0000E6D4       madStrings.IntToStrEx
 0001:0000E72C       madStrings.IntToStrEx
 0001:0000E780       madStrings.IntToHexEx
 0001:0000E84C       madStrings.IntToHexEx
 0001:0000E914       madStrings.StrToIntEx
 0001:0000E98C       madStrings.FormatSubStrs
 0001:0000EB60       madStrings.SubStrCount
 0001:0000EC24       madStrings.SubStr
 0001:0000ECE4       madStrings.SubStrExists
 0001:0000EE50       madStrings.SubTextExists
 0001:0000EFBC       madStrings.DecSep
 0001:0000EFFC       madStrings.SizeToStr
 0001:0000F33C       madStrings.ErrorCodeToStr
 0001:0000F544       madStrings.DecryptStr
 0001:0000F584       madStrings.AnsiToWideEx
 0001:0000F670       madStrings.WideToAnsiEx
 0001:0000F6C0       madStrings.Finalization
 0001:0000F718       madZip.Min
 0001:0000F758       madZip.SetFilePointer2
 0001:0000F7AC       madZip.MapViewOfFile2
 0001:0000F7C4       madZip.CheckSrcMap
 0001:0000F914       madZip.FlushDstFile
 0001:0000F9CC       madZip.CheckDstMap
 0001:0000FAE0       madZip.LongestMatch
 0001:0000FC64       madZip.ReadBuffer
 0001:0000FCD8       madZip.FillWindow
 0001:0000FE44       madZip.InitializeBlock
 0001:0000FEB0       madZip.FlushPending
 0001:0000FF2C       madZip.BitReverse
 0001:0000FF50       madZip.GenerateCodes
 0001:0000FFBC       madZip.RestoreHeap
 0001:000100B0       madZip.GenerateBitLengths
 0001:0001029C       madZip.BuildTree
 0001:000104E8       madZip.BitsWindup
 0001:0001054C       madZip.SendBits
 0001:000105DC       madZip.SendTree
 0001:0001077C       madZip.SendAllTrees
 0001:00010824       madZip.ScanTree
 0001:0001092C       madZip.BuildBitLengthTree
 0001:000109A0       madZip.CopyBlock
 0001:00010A3C       madZip.TreeStroredBlock
 0001:00010A90       madZip.CompressBlock
 0001:00010BE0       madZip.TreeFlushBlock
 0001:00010D18       madZip.FlushBlockOnly
 0001:00010D5C       madZip.TreeTally
 0001:00010DEC       madZip.InsertString
 0001:00010E30       madZip.CompressEx
 0001:00011394       madZip.CheckSrcMap
 0001:000114E8       madZip.FlushDstFile
 0001:000115D8       madZip.CheckDstMap
 0001:000116BC       madZip.Store
 0001:00011794       madZip.InflateFlush
 0001:00011818       madZip.UpdatePointers
 0001:000118DC       madZip.InflateFast
 0001:00011B8C       madZip.InflateCodesNew
 0001:00011BC0       madZip.UpdatePointers
 0001:00011C58       madZip.InflateCodes
 0001:0001238C       madZip.BuildHuffmanTables
 0001:000127E4       madZip.InflateTreesBits
 0001:00012888       madZip.InflateTreesDynamic
 0001:000129BC       madZip.InflateTreesFixed
 0001:00012B84       madZip.UpdatePointers
 0001:00012C18       madZip.InflateBlocks
 0001:00013624       madZip.InflateBlockReset
 0001:00013664       madZip.InflateBlocksNew
 0001:00013720       madZip.UncompressEx
 0001:0001390C       madZip.Compress
 0001:00013940       madZip.Uncompress
 0001:00013974       madZip.Compress
 0001:00013A94       madZip.Uncompress
 0001:00013B78       madZip.UpdateCrc32
 0001:00013DC4       madZip.Zip
 0001:000144FC       madNVBitmap..TINVBitmap
 0001:000148AC       madNVBitmap.CreateBmp
 0001:00014968       madNVBitmap.CloseBmp
 0001:00014984       madNVBitmap.TINVBitmap.Create
 0001:000149E8       madNVBitmap.TINVBitmap.Destroy
 0001:00014A1C       madNVBitmap.TINVBitmap.GetWidth
 0001:00014A20       madNVBitmap.TINVBitmap.GetHeight
 0001:00014A24       madNVBitmap.TINVBitmap.Draw
 0001:00014A60       madNVBitmap.TINVBitmap.AsBmpStr
 0001:00014AB8       madNVBitmap.SwapDword
 0001:00014AE0       madNVBitmap.GetPngHeader
 0001:00014B78       madNVBitmap.Adler32
 0001:00014BF0       madNVBitmap.CompressBitmap
 0001:00014CD8       madNVBitmap.AddPngPart
 0001:00014E0C       madNVBitmap.CreatePng
 0001:00014F48       madNVBitmap.Hist3d
 0001:0001503C       madNVBitmap.M3d
 0001:00015238       madNVBitmap.Vol
 0001:00015304       madNVBitmap.Bottom
 0001:00015454       madNVBitmap.Top
 0001:000155B4       madNVBitmap.Var_
 0001:0001574C       madNVBitmap.Maximize
 0001:00015938       madNVBitmap.Cut
 0001:00015AE4       madNVBitmap.FindOptimalPalette
 0001:00015DF4       madNVBitmap.InitColorLookup
 0001:00015E30       madNVBitmap.ColorLookup
 0001:00015EE8       madNVBitmap.GetGrayPal
 0001:00015F54       madNVBitmap.InitGrayLookup
 0001:00015F90       madNVBitmap.GrayLookup
 0001:00015FF4       madNVBitmap.TINVBitmap.AsPngStr
 0001:00016390       madNVBitmap.TINVBitmap.SaveBmp
 0001:0001646C       madNVBitmap.TINVBitmap.SavePng
 0001:00016558       madNVBitmap.GetContributorList
 0001:000168B4       madNVBitmap.FreeContributorList
 0001:000168DC       madNVBitmap.MitchellResampling32
 0001:00016B94       madNVBitmap.TINVBitmap.Zoom
 0001:00016C5C       madNVBitmap.DrawCursorOnDC
 0001:00016D98       madNVBitmap.CalculateArea
 0001:00016E3C       madNVBitmap.WindowToRgn
 0001:00016EAC       madNVBitmap.CalculateRegion
 0001:00016F40       madNVBitmap.DcToBmp
 0001:00017148       madNVBitmap.LoadBitmap
 0001:00017244       madNVBitmap.ScreenShot
 0001:000176EC       madTools.OS
 0001:00017B74       madTools.GetFreeSystemResources
 0001:00017CA0       madTools.GetFileVersion
 0001:00017D7C       madTools.GetFileVersion
 0001:00017E90       madTools.FileVersionToStr
 0001:00017F88       madTools.MethodToProcedure
 0001:000180E0       madTools.MsgHandlerWindowProc
 0001:000182AC       madTools.MsgHandlerWindow
 0001:00018558       madTools.AddMsgHandler_
 0001:000186F8       madTools.AddMsgHandler
 0001:00018704       madTools.DelMsgHandler_
 0001:000188FC       madTools.DelMsgHandler
 0001:00018908       madTools.FinalMsgHandler
 0001:00018920       madTools.FindModule
 0001:00018A2C       madTools.GetImageNtHeaders
 0001:00018A88       madTools.GetImageDataDirectory
 0001:00018ABC       madTools.GetImageExportDirectory
 0001:00018AC4       madTools.ExportToFunc
 0001:00018B9C       madTools.VirtualToRaw
 0001:00018C04       madTools.GetSizeOfImage
 0001:00018C18       madTools.NeedModuleFileMap
 0001:00018CF4       madTools.GetImageProcAddress
 0001:00018EE4       madTools.GetImageProcAddress
 0001:00018F48       madTools.GetImageProcName
 0001:00019098       madTools.ResToStr
 0001:000190F0       madTools.Unmangle
 0001:00019594       madTools.TickDif
 0001:000195B0       madTools.GetExceptionObject
 0001:00019680       madTools.InitTryExceptFinally
 0001:000196A4       madTools.Finalization
 0001:000196FC       madCrypt.SwapDword
 0001:00019728       madCrypt.crypt2dwords
 0001:00019AE8       madCrypt.SetPassword
 0001:00019BF0       madCrypt.cryptBuf
 0001:00019DE0       madCrypt.Decrypt
 0001:00019E9C       madCrypt.OldEncrypt
 0001:00019F08       madCrypt.OldDecrypt
 0001:00019F74       madCrypt.Encode
 0001:0001A0AC       madCrypt.Encode
 0001:0001A110       madCrypt.Decode
 0001:0001A264       madCrypt.Decode
 0001:0001A7A0       madDisAsm.GetHandleAnyExceptionAddr
 0001:0001A7A8       madDisAsm.GetHandleOnExceptionAddr
 0001:0001A7B0       madDisAsm.GetHandleAutoExceptionAddr
 0001:0001A7B8       madDisAsm.GetHandleFinallyAddr
 0001:0001A7C0       madDisAsm.GetHalt0Addr
 0001:0001B3F8       madDisAsm.CheckPrefix
 0001:0001B514       madDisAsm.ParseModRm
 0001:0001B80C       madDisAsm.ParseImmediateData
 0001:0001B8F0       madDisAsm.IsValidOpcode
 0001:0001BDF8       madDisAsm.CheckTarget
 0001:0001C0A4       madDisAsm.CheckRegState
 0001:0001C590       madDisAsm.ParseCode
 0001:0001C7B8       madDisAsm.CodeToHex
 0001:0001C7F8       madDisAsm.FindProcName
 0001:0001C82C       madDisAsm.St
 0001:0001C8D4       madDisAsm.CalcMSize
 0001:0001C998       madDisAsm.DisAsmModRm
 0001:0001CF4C       madDisAsm.GetLabel
 0001:0001D354       madDisAsm.RegStr
 0001:0001D4BC       madDisAsm.IxToDw
 0001:0001D7AC       madDisAsm.IxToInt
 0001:0001D9C0       madDisAsm.CheckFunctionName
 0001:0001DB94       madDisAsm.CheckStringData
 0001:0001DDC0       madDisAsm.ParseCode
 0001:0001E6E0       madDisAsm.ParseCode
 0001:0001E764       madDisAsm.ParseCode
 0001:0001E77C       madDisAsm.ParseCode_
 0001:0001E798       madDisAsm.AddCodeArea
 0001:0001E934       madDisAsm.AddSpecialBlock
 0001:0001E9FC       madDisAsm.CheckAddTarget
 0001:0001EF88       madDisAsm.ParseCodeArea
 0001:0001F3B4       madDisAsm.CalcCodeBegin
 0001:0001F44C       madDisAsm.FindCodeArea
 0001:0001F498       madDisAsm.ParseFunction_
 0001:0001FA48       madDisAsm.ParseFunction
 0001:0001FA90       madDisAsm.FindCodeArea
 0001:0001FB24       madDisAsm.AddLine
 0001:0001FFFC       madDisAsm.DoItAll
 0001:00020B38       madDisAsm.ParseFunctionEx
 0001:00020DDC       madDisAsm.kernel32handle
 0001:00020E70       madDisAsm.kernelbasehandle
 0001:00020F08       madDisAsm.KernelProc
 0001:00020FA4       madDisAsm.Fs
 0001:00020FA8       madDisAsm.Magic
 0001:00021070       madDisAsm.Magic95
 0001:00021114       madDisAsm.StartTryRead
 0001:0002121C       madDisAsm.EndTryRead
 0001:00021254       madDisAsm.CheckTryRead
 0001:00021318       madDisAsm.TryRead
 0001:00021390       madDisAsm.Finalization
 0001:000215CC       madMapFile..TMapFile
 0001:00021D40       madMapFile..TMiniStream
 0001:00021F64       madMapFile.TMiniStream.Destroy
 0001:00021F98       madMapFile.TMiniStream.SetSize
 0001:00022008       madMapFile.TMiniStream.Read
 0001:00022040       madMapFile.TMiniStream.Write
 0001:00022084       madMapFile.CalcCryptPassword
 0001:000221B8       madMapFile.LoadStrFromFile
 0001:000222CC       madMapFile.ReadPackedInteger
 0001:0002230C       madMapFile.ReadPackedString
 0001:00022350       madMapFile.Segment_NewItem
 0001:0002265C       madMapFile.Segment_ParseStr
 0001:0002284C       madMapFile.Segment_LoadFromStream
 0001:000229B0       madMapFile.Public_NewItem
 0001:00022CEC       madMapFile.Public_ParseStr
 0001:00022ED4       madMapFile.Public_LoadFromStream
 0001:00023040       madMapFile.Line_NewItem
 0001:000230D8       madMapFile.Line_ParseStr
 0001:00023270       madMapFile.Line_LoadFromStream
 0001:00023340       madMapFile.ImportStr
 0001:00023740       madMapFile.GetMapFileFromResources
 0001:000237BC       madMapFile.SortLines
 0001:000238A4       madMapFile.SortSegments
 0001:00023B18       madMapFile.OptimizeSegments
 0001:00023C90       madMapFile.GetNextLine
 0001:00023D28       madMapFile.ParseStr
 0001:000241BC       madMapFile.SimpleCryptString
 0001:00024264       madMapFile.DecodeNameString
 0001:000243B4       madMapFile.GetStr
 0001:000243E0       madMapFile.ReadValue
 0001:00024414       madMapFile.ReadJdbg
 0001:000247C0       madMapFile.FindMapFile
 0001:0002491C       madMapFile.ParseNames
 0001:00024970       madMapFile.ParseSegments
 0001:00024A64       madMapFile.ParsePublics
 0001:00024C28       madMapFile.ParseSrcFileLines
 0001:00024CF8       madMapFile.ParseSrcFile
 0001:00024E04       madMapFile.ParseLines
 0001:00024E38       madMapFile.ParseAll
 0001:00024F64       madMapFile.SortPublics
 0001:000250C8       madMapFile.Parse
 0001:000251C4       madMapFile.GetFileTime
 0001:00025250       madMapFile.IsTdsOld
 0001:00025408       madMapFile.ParseTd32
 0001:000256D0       madMapFile.TMapFile.Create
 0001:00025904       madMapFile.TMapFile.FindSegment
 0001:00025A18       madMapFile.TMapFile.FindSegment
 0001:00025A54       madMapFile.TMapFile.FindPublic
 0001:00025B4C       madMapFile.TMapFile.FindPublic
 0001:00025DA4       madMapFile.TMapFile.FindPublic
 0001:00025DE0       madMapFile.TMapFile.FindLine
 0001:00025DEC       madMapFile.TMapFile.FindLine
 0001:00025FA0       madMapFile.TMapFile.FindAddress
 0001:0002609C       madMapFile.WritePackedInteger
 0001:000260F4       madMapFile.WritePackedString
 0001:0002616C       madMapFile.Segment_SaveToStream
 0001:00026278       madMapFile.Public_SaveToStream
 0001:000263C4       madMapFile.Line_SaveToStream
 0001:00026480       madMapFile.TMapFile.Export
 0001:00026804       madMapFile.MapFileCache_Add
 0001:00026880       madMapFile.MapFileCache_Get
 0001:000269A4       madMapFile.MapFileCache_Clear
 0001:000269DC       madMapFile.FindMapFile
 0001:00026B54       madMapFile.GetMapFileInfos
 0001:00026C64       madMapFile.GetProcNameFromMapFile
 0001:00026E5C       madMapFile.GetLineNumber
 0001:00026EC4       madMapFile.Finalization
 0001:0002727C       madNVAssistant..TNVItem
 0001:000274FC       madNVAssistant..TNVButton
 0001:000276CC       madNVAssistant..TNVLabel
 0001:000278D0       madNVAssistant..TNVEdit
 0001:00027AD4       madNVAssistant..TNVCheckBox
 0001:00027CB4       madNVAssistant..TNVImage
 0001:00027FA8       madNVAssistant..TNVForm
 0001:00028334       madNVAssistant..TNVAssistant
 0001:00028470       madNVAssistant.BooleanValue
 0001:0002851C       madNVAssistant.IntegerValue
 0001:00028584       madNVAssistant.DecCol
 0001:00028678       madNVAssistant.GetFont
 0001:00028738       madNVAssistant.GetTextExtent
 0001:000287B0       madNVAssistant.FillRect
 0001:000287F8       madNVAssistant.FillRect
 0001:0002882C       madNVAssistant.LineRect
 0001:00028940       madNVAssistant.LineRect
 0001:00028994       madNVAssistant.WrText
 0001:00028B04       madNVAssistant.TNVItem.Create
 0001:00028B88       madNVAssistant.TNVItem.GetTNVItem
 0001:00028B8C       madNVAssistant.StrToOutputType
 0001:00028C08       madNVAssistant.TNVItem.SetProperty
 0001:00028D24       madNVAssistant.TNVItem.Show
 0001:00028F68       madNVAssistant.TNVItem.FormPaint
 0001:00028F6C       madNVAssistant.TNVItem.OwnerDraw
 0001:00028F88       madNVAssistant.TNVItem.MayEnableContinueButton
 0001:00028F8C       madNVAssistant.TNVItem.CreateWindow
 0001:00029060       madNVAssistant.TNVItem.SetForceDisabled
 0001:00029088       madNVAssistant.TNVItem.GetOutputType
 0001:00029090       madNVAssistant.TNVItem.GetOutputName
 0001:000290A4       madNVAssistant.TNVItem.GetName
 0001:000290B8       madNVAssistant.TNVItem.GetHandle
 0001:000290BC       madNVAssistant.TNVItem.GetTabStop
 0001:000290C4       madNVAssistant.TNVItem.GetSpacing
 0001:000290C8       madNVAssistant.TNVItem.GetEnabled
 0001:000290D0       madNVAssistant.TNVItem.SetOutputType
 0001:000290F8       madNVAssistant.TNVItem.SetOutputName
 0001:00029144       madNVAssistant.TNVItem.SetEnabled
 0001:0002916C       madNVAssistant.TNVItem.SetFocus
 0001:000291A4       madNVAssistant.TNVButton.Create
 0001:00029234       madNVAssistant.TNVButton.SetProperty
 0001:00029360       madNVAssistant.TNVButton.Show
 0001:00029444       madNVAssistant.TNVButton.OwnerDraw
 0001:00029720       madNVAssistant.TNVButton.GetCaption
 0001:00029748       madNVAssistant.TNVButton.SetCaption
 0001:00029794       madNVAssistant.TNVButton.GetMinWidth
 0001:00029798       madNVAssistant.TNVLabel.SetProperty
 0001:0002982C       madNVAssistant.TNVLabel.Show
 0001:000298D8       madNVAssistant.TNVLabel.CalcRect
 0001:0002996C       madNVAssistant.TNVLabel.IsHeadLabel
 0001:00029A78       madNVAssistant.TNVLabel.GetCaption
 0001:00029AA0       madNVAssistant.TNVLabel.SetCaption
 0001:00029AEC       madNVAssistant.TNVEdit.SetProperty
 0001:00029C80       madNVAssistant.TNVEdit.Show
 0001:00029D40       madNVAssistant.TNVEdit.FormPaint
 0001:00029E10       madNVAssistant.TNVEdit.MayEnableContinueButton
 0001:00029E70       madNVAssistant.TNVEdit.GetLines
 0001:00029E74       madNVAssistant.TNVEdit.GetOptional
 0001:00029E7C       madNVAssistant.TNVEdit.GetText
 0001:00029ED8       madNVAssistant.TNVEdit.SetText
 0001:00029F80       madNVAssistant.TNVEdit.GetColored
 0001:00029F88       madNVAssistant.TNVEdit.SetColored
 0001:00029F9C       madNVAssistant.TNVEdit.GetValid
 0001:00029FA4       madNVAssistant.TNVEdit.SetValid
 0001:00029FC8       madNVAssistant.TNVCheckBox.SetProperty
 0001:0002A0BC       madNVAssistant.TNVCheckBox.Show
 0001:0002A1B8       madNVAssistant.TNVCheckBox.OwnerDraw
 0001:0002A408       madNVAssistant.TNVCheckBox.GetCaption
 0001:0002A41C       madNVAssistant.TNVCheckBox.SetCaption
 0001:0002A468       madNVAssistant.TNVCheckBox.GetChecked
 0001:0002A470       madNVAssistant.TNVCheckBox.SetChecked
 0001:0002A488       madNVAssistant.TNVImage.SetProperty
 0001:0002A5E0       madNVAssistant.TNVImage.Show
 0001:0002A76C       madNVAssistant.TNVImage.FormPaint
 0001:0002A894       madNVAssistant.TNVImage.GetFile
 0001:0002A8A8       madNVAssistant.TNVImage.GetBitmap
 0001:0002A8BC       madNVAssistant.TNVImage.GetClickable
 0001:0002A8C4       madNVAssistant.TNVImage.GetBorder
 0001:0002A8CC       madNVAssistant.TNVImage.GetWidth
 0001:0002A8D8       madNVAssistant.TNVImage.GetHeight
 0001:0002A8E4       madNVAssistant.TNVImage.SetBitmap
 0001:0002A9F4       madNVAssistant.AddItem
 0001:0002AAFC       madNVAssistant.ReadProperty
 0001:0002AE38       madNVAssistant.ConvertProperty
 0001:0002B1D4       madNVAssistant.ConvertObject
 0001:0002B608       madNVAssistant.TNVForm.Create
 0001:0002B838       madNVAssistant.TNVForm.Destroy
 0001:0002B8A8       madNVAssistant.FindImagePos
 0001:0002B950       madNVAssistant.TNVForm.DialogWndMethod
 0001:0002C3C0       madNVAssistant.TNVForm.CheckContinueButton
 0001:0002C47C       madNVAssistant.TNVForm.FindClass
 0001:0002C530       madNVAssistant.TNVForm.FindHandle
 0001:0002C584       madNVAssistant.TNVForm.FocusNext
 0001:0002C644       madNVAssistant.TNVForm.FireOnAction
 0001:0002C6D4       madNVAssistant.TNVForm.GetAssistant
 0001:0002C6F0       madNVAssistant.TNVForm.GetName
 0001:0002C704       madNVAssistant.TNVForm.GetTitle
 0001:0002C718       madNVAssistant.TNVForm.SetTitle
 0001:0002C764       madNVAssistant.TNVForm.GetMessage_
 0001:0002C778       madNVAssistant.TNVForm.SetMessage
 0001:0002C7C4       madNVAssistant.TNVForm.GetItemCount
 0001:0002C7D0       madNVAssistant.TNVForm.GetContinueButton
 0001:0002C7FC       madNVAssistant.TNVForm.GetSkipButton
 0001:0002C828       madNVAssistant.TNVForm.GetCancelButton
 0001:0002C854       madNVAssistant.TNVForm.GetActiveControl
 0001:0002C868       madNVAssistant.TNVForm.SetActiveControl
 0001:0002C8B4       madNVAssistant.TNVForm.GetTimer
 0001:0002C8B8       madNVAssistant.TNVForm.GetHandle
 0001:0002C8BC       madNVAssistant.TNVForm.GetModalResult
 0001:0002C8C4       madNVAssistant.TNVForm.GetOnAction
 0001:0002C8C8       madNVAssistant.TNVForm.SetOnAction
 0001:0002C8CC       madNVAssistant.TNVForm.GetItem
 0001:0002C900       madNVAssistant.TNVForm.nvEdit
 0001:0002C984       madNVAssistant.TNVForm.nvLabel
 0001:0002CA08       madNVAssistant.TNVForm.nvButton
 0001:0002CA8C       madNVAssistant.TNVForm.nvCheckBox
 0001:0002CB10       madNVAssistant.TNVForm.nvImage
 0001:0002CB94       madNVAssistant.TNVForm.Skip
 0001:0002CB9C       madNVAssistant.CreateMainWindow
 0001:0002CCC8       madNVAssistant.SelectFont
 0001:0002CD6C       madNVAssistant.PrepareMainButton
 0001:0002CEE8       madNVAssistant.CreateMainButton
 0001:0002CFE4       madNVAssistant.TNVForm.ShowModal
 0001:0002D9A8       madNVAssistant.TNVForm.GetException
 0001:0002D9BC       madNVAssistant.TNVForm.SetException
 0001:0002DA08       madNVAssistant.TNVForm.GetData
 0001:0002DA0C       madNVAssistant.TNVForm.SetData
 0001:0002DA10       madNVAssistant.TNVAssistant.Create
 0001:0002DB24       madNVAssistant.TNVAssistant.GetTitle
 0001:0002DB38       madNVAssistant.TNVAssistant.SetTitle
 0001:0002DBAC       madNVAssistant.TNVAssistant.GetFormCount
 0001:0002DBB8       madNVAssistant.TNVAssistant.GetForms
 0001:0002DBEC       madNVAssistant.TNVAssistant.GetForm
 0001:0002DC8C       madNVAssistant.TNVAssistant.GetModalResult
 0001:0002DC94       madNVAssistant.TNVAssistant.GetOnAction
 0001:0002DC98       madNVAssistant.TNVAssistant.SetOnAction
 0001:0002DC9C       madNVAssistant.TNVAssistant.ShowModal
 0001:0002DD00       madNVAssistant.TNVAssistant.GetException
 0001:0002DD14       madNVAssistant.TNVAssistant.SetException
 0001:0002DD60       madNVAssistant.TNVAssistant.GetData
 0001:0002DD64       madNVAssistant.TNVAssistant.SetData
 0001:0002DD68       madNVAssistant.CreateAssistant
 0001:0002DE00       madNVAssistant.LoadAssistant
 0001:0002E0F0       madStackTrace..BcbTermination
 0001:0002E308       madStackTrace.AddModule
 0001:0002E4D8       madStackTrace.ApproveFunction
 0001:0002E514       madStackTrace.ApproveFunction
 0001:0002E56C       madStackTrace.GetFunctionName
 0001:0002E604       madStackTrace.AddFunction
 0001:0002EB8C       madStackTrace.CheckFunctionAreas
 0001:0002EC00       madStackTrace.FindCodeAddrAndTarget
 0001:0002EF60       madStackTrace.StackAddrToStr
 0001:0002F224       madStackTrace.InternalError
 0001:0002F328       madStackTrace.GetTryFinallyExitAddr
 0001:0002F33C       madStackTrace.GetTryFinallyExitRetAddr
 0001:0002F6D0       madStackTrace.GetStackAddr
 0001:0002F6D4       madStackTrace.GetStackTop
 0001:0002F6DC       madStackTrace.AddLink
 0001:0002F79C       madStackTrace.DeleteLink
 0001:0002F7EC       madStackTrace.FindAndDeleteLink
 0001:0002F868       madStackTrace.InvalidateStackItem
 0001:0002F924       madStackTrace.CouldBeAfterCall
 0001:0002F9CC       madStackTrace.FindNearestExport
 0001:0002FA78       madStackTrace.AddStackItem
 0001:00030184       madStackTrace.InitEbpFrames
 0001:00030268       madStackTrace.CollectPossibleStackItems
 0001:00030518       madStackTrace.FindValidStackArr
 0001:00030554       madStackTrace.RemoveRecursiveArea
 0001:000306AC       madStackTrace.RemoveRecursiveAreas
 0001:00030710       madStackTrace.InvalidateFunction
 0001:000307C8       madStackTrace.FindApprovedDownLink
 0001:0003082C       madStackTrace.FillUpLink
 0001:00030A7C       madStackTrace.InDeepCheck
 0001:00030C6C       madStackTrace.EvaluateLinks
 0001:00030F24       madStackTrace.RealizeLinks
 0001:00030FA0       madStackTrace.RealizeOptimalLinkChain
 0001:0003108C       madStackTrace.AddMinDebugInfoItem
 0001:000311B4       madStackTrace.FillFinalOutput
 0001:0003160C       madStackTrace.ComposeResult
 0001:00032014       madStackTrace.InternalError2
 0001:00032100       madStackTrace.GetEbp
 0001:00032104       madStackTrace.StackTrace
 0001:000327A0       madStackTrace.CouldBeAfterCall
 0001:00032848       madStackTrace.AddStackItem
 0001:0003291C       madStackTrace.InitEbpFrames
 0001:00032A2C       madStackTrace.CollectPossibleStackItems
 0001:00032AF0       madStackTrace.GetStackAddr
 0001:00032AF4       madStackTrace.GetStackTop
 0001:00032AFC       madStackTrace.PrepareStackTrace
 0001:00032BE8       madStackTrace.Finalization
 0001:00032C38       WinSock.bind
 0001:00032C40       WinSock.closesocket
 0001:00032C48       WinSock.connect
 0001:00032C50       WinSock.htons
 0001:00032C58       WinSock.inet_addr
 0001:00032C60       WinSock.recv
 0001:00032C68       WinSock.recvfrom
 0001:00032C70       WinSock.select
 0001:00032C78       WinSock.send
 0001:00032C80       WinSock.sendto
 0001:00032C88       WinSock.setsockopt
 0001:00032C90       WinSock.socket
 0001:00032C98       WinSock.gethostbyname
 0001:00032CA0       WinSock.WSAStartup
 0001:00032CA8       WinSock.WSACleanup
 0001:00032FE0       ShellAPI.ShellExecute
 0001:00032FE8       ShellAPI.ShellExecuteA
 0001:00032FF0       ShellAPI.ShellExecuteExA
 0001:00032FF8       CommCtrl.InitCommonControls
 0001:00033000       CommCtrl.ImageList_Create
 0001:00033008       CommCtrl.ImageList_Destroy
 0001:00033010       CommDlg.GetSaveFileNameA
 0001:00033018       CommDlg.PrintDlg
 0001:00033A88       madExcept.CalibrateCode
 0001:00033CD8       madExcept.GetThreadList
 0001:00034060       madExcept.OpenThread
 0001:00034214       madExcept.ModuleName
 0001:00034248       madExcept.ExtractFileName
 0001:000342C4       madExcept.ExtractFilePath
 0001:00034340       madExcept.ExtractFileDrive
 0001:00034448       madExcept.KillExt
 0001:000344C4       madExcept.RelativeToAbsolute
 0001:00034688       madExcept.GetTempPath
 0001:000347D8       madExcept.ClearTempPath
 0001:00034908       madExcept.CompName
 0001:00034940       madExcept.RegReadStr
 0001:00034A50       madExcept.RegWriteStr
 0001:00034B24       madExcept.RegDelVal
 0001:00034BBC       madExcept.GetSeconds
 0001:00034C00       madExcept.InitSecAttr
 0001:00034CA4       madExcept.GetModuleList
 0001:00034E04       madExcept.InvalidImportTable
 0001:00034EDC       madExcept.PatchImportTable
 0001:00034F74       madExcept.PatchImportTables
 0001:00035004       madExcept.SetThreadInfo
 0001:000352CC       madExcept.NameThread
 0001:00035384       madExcept.GetThreadInfoStr
 0001:000356AC       madExcept.IsNewCs
 0001:000356F8       madExcept.GetTebIndex
 0001:00035708       madExcept.IsSectionLocked
 0001:00035730       madExcept.IsProcessBlocked
 0001:000357A0       madExcept.IsValidIdent
 0001:00035850       madExcept.InRangeOrZero
 0001:00035864       madExcept.IsValidObject
 0001:00035A7C       madExcept._FpuInit
 0001:00035A8C       madExcept.CheckAutoBtn
 0001:00035AF8       madExcept.SHGetMalloc
 0001:00035B00       madExcept.SHGetSpecialFolderLocation
 0001:00035B08       madExcept.SHGetPathFromIDListA
 0001:00035B10       madExcept.ReplaceVersion
 0001:00035C80       madExcept.ExpandVars
 0001:000362E4       madExcept.IsClass
 0001:000363C0       madExcept.GetExceptClass_
 0001:00036478       madExcept.GetExceptMessage_
 0001:000365CC       madExcept.FormatExceptMessage
 0001:00036678       madExcept.FillClipboard
 0001:00036738       madExcept.BcbMallocCallback
 0001:00036820       madExcept.BcbGetExceptionObjectCallback
 0001:000368A0       madExcept.BcbRaiseExceptionCallback
 0001:00036928       madExcept.BcbInitCatchArgPascalCallback
 0001:000369C8       madExcept.HookHandleAnyException
 0001:000369EC       madExcept.BcbTerminateCallback
 0001:00036A6C       madExcept.GetHandleAnyExceptionAddr
 0001:00036A80       madExcept.HookBcbExceptions
 0001:00037158       madExcept.GetBcbExceptInfo
 0001:0003725C       madExcept.CheckExceptParams
 0001:00037370       madExcept.IsCorrectExceptAddr
 0001:00037454       madExcept.CheckExceptAddr
 0001:00037F68       madExcept.GetMeSettingsRes
 0001:00037F84       madExcept.SetMEPropertyStr
 0001:00037FC0       madExcept.AddMEProperty
 0001:00038094       madExcept.ParseMEProperties
 0001:00038500       madExcept.FindMEProperty
 0001:00038654       madExcept.EnterSettingsMutex
 0001:0003870C       madExcept.LeaveSettingsMutex
 0001:00038720       madExcept.ReferenceMeSettingsBuf
 0001:00038934       madExcept.DereferenceMeSettingsBuf
 0001:000389BC       madExcept.GetPropStr
 0001:00038A44       madExcept.SetPropStr
 0001:00038B0C       madExcept.FillProps
 0001:00038CFC       madExcept.ReferenceMeSettingsModule
 0001:00038DB0       madExcept.UnlistMeSettingsModule
 0001:00038E1C       madExcept.FreeProps
 0001:00038E7C       madExcept.DereferenceMeSettingsModule
 0001:00038EF0       madExcept.RefreshProps
 0001:00039B8C       madExcept..TIMESettings
 0001:0003E094       madExcept..TIMEAttachments
 0001:0003E6C4       madExcept..TIMEFields
 0001:0003FD70       madExcept..TIMEException
 0001:00041420       madExcept.FireHandlers
 0001:00041A40       madExcept.ReceiveFireHandlers
 0001:00041A68       madExcept.PutAssisIntoBugReport
 0001:00041D68       madExcept.ContainsSyncHandler
 0001:00041EC4       madExcept.DoFireHandlers
 0001:000422F4       madExcept.InitFireHandlers
 0001:00042314       madExcept.CloseFireHandlers
 0001:00042324       madExcept.IsDelphiThread
 0001:00042434       madExcept.SuspendDelphiThreads
 0001:000426A0       madExcept.PauseMeEventually
 0001:00042780       madExcept.ResumeMainThread
 0001:000427B8       madExcept.SuspendMainThread
 0001:000427E4       madExcept.ReceiveAntiFreeze
 0001:00042824       madExcept.AntiFreezeThread
 0001:00042950       madExcept.InitAntiFreeze
 0001:000429E0       madExcept.CloseAntiFreeze
 0001:00042A60       madExcept.PauseFreezeCheck
 0001:00042AE4       madExcept.CheckEMailAddress
 0001:00042C20       madExcept.HandleContactForm
 0001:00043078       madExcept.GetFileTime
 0001:00043104       madExcept.GetScreenShotFile
 0001:00043184       madExcept.HandleScreenshotForm
 0001:00043538       madExcept.TIMESettings.IsValid
 0001:00043540       madExcept.TIMESettings.Module
 0001:00043544       madExcept.TIMESettings.Enabled
 0001:00043564       madExcept.TIMESettings.MinDebugInfoOnly
 0001:000435D4       madExcept.TIMESettings.NoOwnSettings
 0001:000435F8       madExcept.TIMESettings.CheckFileCrc
 0001:00043620       madExcept.TIMESettings.CheckForFreeze
 0001:00043644       madExcept.TIMESettings.FreezeTimeout
 0001:0004366C       madExcept.TIMESettings.GetAutoSave
 0001:00043690       madExcept.TIMESettings.GetAutoSaveIfNotSent
 0001:000436BC       madExcept.TIMESettings.GetAutoSend
 0001:000436E0       madExcept.TIMESettings.GetAutoSendPrgrBox
 0001:00043704       madExcept.TIMESettings.GetAutoClipboard
 0001:00043728       madExcept.TIMESettings.GetSuspendThreads
 0001:00043750       madExcept.TIMESettings.GetShowPleaseWaitBox
 0001:00043774       madExcept.TIMESettings.GetAutoContinue
 0001:0004379C       madExcept.TIMESettings.GetAutoRestart
 0001:000437C0       madExcept.TIMESettings.GetAutoClose
 0001:000437E4       madExcept.TIMESettings.GetAutoDelay
 0001:00043808       madExcept.TIMESettings.GetFilter1Classes
 0001:00043838       madExcept.TIMESettings.GetFilter2Classes
 0001:00043868       madExcept.TIMESettings.GetFilter1NoBugReport
 0001:0004388C       madExcept.TIMESettings.GetFilter2NoBugReport
 0001:000438B0       madExcept.TIMESettings.GetGeneralNoBugReport
 0001:000438D4       madExcept.TIMESettings.GetFilter1NoScreenShot
 0001:000438F8       madExcept.TIMESettings.GetFilter2NoScreenShot
 0001:0004391C       madExcept.TIMESettings.GetGeneralNoScreenShot
 0001:00043940       madExcept.TIMESettings.GetFilter1NoSuspend
 0001:00043964       madExcept.TIMESettings.GetFilter2NoSuspend
 0001:00043988       madExcept.TIMESettings.GetGeneralNoSuspend
 0001:000439AC       madExcept.TIMESettings.GetFilter1NoHandlers
 0001:000439D4       madExcept.TIMESettings.GetFilter2NoHandlers
 0001:000439FC       madExcept.TIMESettings.GetGeneralNoHandlers
 0001:00043A24       madExcept.TIMESettings.GetFilter1ShowSetting
 0001:00043A50       madExcept.TIMESettings.GetFilter2ShowSetting
 0001:00043A7C       madExcept.TIMESettings.GetGeneralShowSetting
 0001:00043AA8       madExcept.TIMESettings.GetFilter1Assistant
 0001:00043AD4       madExcept.TIMESettings.GetFilter2Assistant
 0001:00043B00       madExcept.TIMESettings.GetGeneralAssistant
 0001:00043B2C       madExcept.TIMESettings.GetSendBtnVisible
 0001:00043B50       madExcept.TIMESettings.GetSaveBtnVisible
 0001:00043B74       madExcept.TIMESettings.GetPrintBtnVisible
 0001:00043B98       madExcept.TIMESettings.GetShowBtnVisible
 0001:00043BBC       madExcept.TIMESettings.GetContinueBtnVisible
 0001:00043BE4       madExcept.TIMESettings.GetRestartBtnVisible
 0001:00043C0C       madExcept.TIMESettings.GetCloseBtnVisible
 0001:00043C30       madExcept.TIMESettings.GetFocusedButton
 0001:00043C5C       madExcept.TIMESettings.GetSendAssistant
 0001:00043C8C       madExcept.TIMESettings.GetSaveAssistant
 0001:00043CBC       madExcept.TIMESettings.GetPrintAssistant
 0001:00043CEC       madExcept.TIMESettings.GetAutoShowBugReport
 0001:00043D14       madExcept.TIMESettings.GetNoOwnerDrawButtons
 0001:00043D38       madExcept.TIMESettings.GetMailAddr
 0001:00043D68       madExcept.TIMESettings.GetSendInBackground
 0001:00043D90       madExcept.TIMESettings.GetMailAsSmtpServer
 0001:00043DBC       madExcept.TIMESettings.GetMailAsSmtpClient
 0001:00043DE8       madExcept.TIMESettings.GetUploadViaHttp
 0001:00043E10       madExcept.TIMESettings.GetMailViaMapi
 0001:00043E34       madExcept.TIMESettings.GetMailViaMailto
 0001:00043E5C       madExcept.TIMESettings.GetSmtpServer
 0001:00043E8C       madExcept.TIMESettings.GetSmtpPort
 0001:00043EB0       madExcept.TIMESettings.GetSmtpAccount
 0001:00043EE0       madExcept.TIMESettings.GetSmtpPassword
 0001:00043F14       madExcept.TIMESettings.GetHttpServer
 0001:00043F44       madExcept.TIMESettings.GetHttpPort
 0001:00043F68       madExcept.TIMESettings.GetHttpAccount
 0001:00043F98       madExcept.TIMESettings.GetHttpPassword
 0001:00043FCC       madExcept.TIMESettings.GetAttachBugReport
 0001:00043FF4       madExcept.TIMESettings.GetAttachBugReportFile
 0001:00044020       madExcept.TIMESettings.GetDeleteBugReportFile
 0001:00044048       madExcept.TIMESettings.GetBugReportSendAs
 0001:0004407C       madExcept.TIMESettings.GetBugReportZip
 0001:000440AC       madExcept.TIMESettings.GetScreenShotDepth
 0001:000440D4       madExcept.TIMESettings.GetScreenShotAppOnly
 0001:000440FC       madExcept.TIMESettings.GetScreenShotSendAs
 0001:00044130       madExcept.TIMESettings.GetScreenShotZip
 0001:00044160       madExcept.TIMESettings.GetMailFrom
 0001:00044190       madExcept.TIMESettings.GetBugReportFile
 0001:000441C0       madExcept.TIMESettings.GetAppendBugReports
 0001:000441E8       madExcept.TIMESettings.GetBugReportFileSize
 0001:00044210       madExcept.TIMESettings.GetNoDupExcepts
 0001:00044238       madExcept.TIMESettings.GetNoDupFreezes
 0001:00044260       madExcept.TIMESettings.GetDupExceptDef
 0001:00044290       madExcept.TIMESettings.GetDupFreezeDef
 0001:000442C0       madExcept.TIMESettings.GetListThreads
 0001:000442E4       madExcept.TIMESettings.GetShowCpuRegisters
 0001:00044304       madExcept.TIMESettings.GetShowStackDump
 0001:00044328       madExcept.TIMESettings.GetShowDisAsm
 0001:0004434C       madExcept.TIMESettings.GetHideUglyItems
 0001:00044374       madExcept.TIMESettings.GetShowRelativeAddrs
 0001:0004439C       madExcept.TIMESettings.GetShowRelativeLines
 0001:000443C4       madExcept.TIMESettings.GetFormatDisassembly
 0001:000443EC       madExcept.TIMESettings.GetLimitDisassembly
 0001:00044410       madExcept.TIMESettings.VersionVar
 0001:00044424       madExcept.TIMESettings.GetTitleBar
 0001:00044454       madExcept.TIMESettings.GetExceptMsg
 0001:00044484       madExcept.TIMESettings.GetFrozenMsg
 0001:000444B4       madExcept.TIMESettings.GetBitFaultMsg
 0001:000444E4       madExcept.TIMESettings.GetSendBtnCaption
 0001:00044514       madExcept.TIMESettings.GetSaveBtnCaption
 0001:00044544       madExcept.TIMESettings.GetPrintBtnCaption
 0001:00044574       madExcept.TIMESettings.GetShowBtnCaption
 0001:000445A4       madExcept.TIMESettings.GetContinueBtnCaption
 0001:000445D8       madExcept.TIMESettings.GetRestartBtnCaption
 0001:0004460C       madExcept.TIMESettings.GetCloseBtnCaption
 0001:0004463C       madExcept.TIMESettings.GetOkBtnCaption
 0001:0004466C       madExcept.TIMESettings.GetDetailsBtnCaption
 0001:000446A0       madExcept.TIMESettings.GetPleaseWaitTitle
 0001:000446D0       madExcept.TIMESettings.GetPleaseWaitText
 0001:00044700       madExcept.TIMESettings.GetMailSubject
 0001:00044730       madExcept.TIMESettings.GetMailBody
 0001:00044760       madExcept.TIMESettings.GetSendBoxTitle
 0001:00044794       madExcept.TIMESettings.GetPrepareAttachMsg
 0001:000447C4       madExcept.TIMESettings.GetMxLookupMsg
 0001:000447F4       madExcept.TIMESettings.GetConnectMsg
 0001:00044820       madExcept.TIMESettings.GetAuthMsg
 0001:0004484C       madExcept.TIMESettings.GetSendMailMsg
 0001:0004487C       madExcept.TIMESettings.GetFieldsMsg
 0001:000448AC       madExcept.TIMESettings.GetSendAttachMsg
 0001:000448DC       madExcept.TIMESettings.GetSendFinalizeMsg
 0001:00044910       madExcept.TIMESettings.GetSendFailureMsg
 0001:00044940       madExcept.TIMESettings.GetAdditionalAttachments
 0001:00044A94       madExcept.TIMESettings.GetAdditionalFields
 0001:00044BC4       madExcept.TIMESettings.GetPluginEnabled
 0001:00044C48       madExcept.TIMESettings.SetPluginEnabled
 0001:00044DB4       madExcept.TIMESettings.SetAutoSave
 0001:00044DDC       madExcept.TIMESettings.SetAutoSaveIfNotSent
 0001:00044E0C       madExcept.TIMESettings.SetAutoSend
 0001:00044E34       madExcept.TIMESettings.SetAutoSendPrgrBox
 0001:00044E5C       madExcept.TIMESettings.SetAutoClipboard
 0001:00044E84       madExcept.TIMESettings.SetSuspendThreads
 0001:00044EB0       madExcept.TIMESettings.SetShowPleaseWaitBox
 0001:00044ED8       madExcept.TIMESettings.SetAutoContinue
 0001:00044F04       madExcept.TIMESettings.SetAutoRestart
 0001:00044F2C       madExcept.TIMESettings.SetAutoClose
 0001:00044F54       madExcept.TIMESettings.SetAutoDelay
 0001:00044F7C       madExcept.TIMESettings.SetFilter1Classes
 0001:00044FE4       madExcept.TIMESettings.SetFilter2Classes
 0001:0004504C       madExcept.TIMESettings.SetFilter1NoBugReport
 0001:00045074       madExcept.TIMESettings.SetFilter2NoBugReport
 0001:0004509C       madExcept.TIMESettings.SetGeneralNoBugReport
 0001:000450C4       madExcept.TIMESettings.SetFilter1NoScreenShot
 0001:000450EC       madExcept.TIMESettings.SetFilter2NoScreenShot
 0001:00045114       madExcept.TIMESettings.SetGeneralNoScreenShot
 0001:0004513C       madExcept.TIMESettings.SetFilter1NoSuspend
 0001:00045164       madExcept.TIMESettings.SetFilter2NoSuspend
 0001:0004518C       madExcept.TIMESettings.SetGeneralNoSuspend
 0001:000451B4       madExcept.TIMESettings.SetFilter1NoHandlers
 0001:000451E0       madExcept.TIMESettings.SetFilter2NoHandlers
 0001:0004520C       madExcept.TIMESettings.SetGeneralNoHandlers
 0001:00045238       madExcept.TIMESettings.SetFilter1ShowSetting
 0001:00045260       madExcept.TIMESettings.SetFilter2ShowSetting
 0001:00045288       madExcept.TIMESettings.SetGeneralShowSetting
 0001:000452B0       madExcept.TIMESettings.SetFilter1Assistant
 0001:00045314       madExcept.TIMESettings.SetFilter2Assistant
 0001:00045378       madExcept.TIMESettings.SetGeneralAssistant
 0001:000453DC       madExcept.TIMESettings.SetSendBtnVisible
 0001:00045404       madExcept.TIMESettings.SetSaveBtnVisible
 0001:0004542C       madExcept.TIMESettings.SetPrintBtnVisible
 0001:00045454       madExcept.TIMESettings.SetShowBtnVisible
 0001:0004547C       madExcept.TIMESettings.SetContinueBtnVisible
 0001:000454A8       madExcept.TIMESettings.SetRestartBtnVisible
 0001:000454D4       madExcept.TIMESettings.SetCloseBtnVisible
 0001:000454FC       madExcept.TIMESettings.SetFocusedButton
 0001:00045524       madExcept.TIMESettings.SetSendAssistant
 0001:0004558C       madExcept.TIMESettings.SetSaveAssistant
 0001:000455F4       madExcept.TIMESettings.SetPrintAssistant
 0001:0004565C       madExcept.TIMESettings.SetAutoShowBugReport
 0001:00045688       madExcept.TIMESettings.SetNoOwnerDrawButtons
 0001:000456B0       madExcept.TIMESettings.SetMailAddr
 0001:00045718       madExcept.TIMESettings.SetSendInBackground
 0001:00045744       madExcept.TIMESettings.SetMailAsSmtpServer
 0001:00045774       madExcept.TIMESettings.SetMailAsSmtpClient
 0001:000457A4       madExcept.TIMESettings.SetUploadViaHttp
 0001:000457D0       madExcept.TIMESettings.SetMailViaMapi
 0001:000457F8       madExcept.TIMESettings.SetMailViaMailto
 0001:00045824       madExcept.TIMESettings.SetSmtpServer
 0001:0004588C       madExcept.TIMESettings.SetSmtpPort
 0001:000458B4       madExcept.TIMESettings.SetSmtpAccount
 0001:0004591C       madExcept.TIMESettings.SetSmtpPassword
 0001:00045988       madExcept.TIMESettings.SetHttpServer
 0001:000459F0       madExcept.TIMESettings.SetHttpPort
 0001:00045A18       madExcept.TIMESettings.SetHttpAccount
 0001:00045A80       madExcept.TIMESettings.SetHttpPassword
 0001:00045AEC       madExcept.TIMESettings.SetAttachBugReport
 0001:00045B18       madExcept.TIMESettings.SetAttachBugReportFile
 0001:00045B48       madExcept.TIMESettings.SetDeleteBugReportFile
 0001:00045B74       madExcept.TIMESettings.SetBugReportSendAs
 0001:00045BE0       madExcept.TIMESettings.SetBugReportZip
 0001:00045C48       madExcept.TIMESettings.SetScreenShotDepth
 0001:00045C74       madExcept.TIMESettings.SetScreenShotAppOnly
 0001:00045CA0       madExcept.TIMESettings.SetScreenShotSendAs
 0001:00045D0C       madExcept.TIMESettings.SetScreenShotZip
 0001:00045D74       madExcept.TIMESettings.SetMailFrom
 0001:00045DDC       madExcept.TIMESettings.SetBugReportFile
 0001:00045E44       madExcept.TIMESettings.SetAppendBugReports
 0001:00045E70       madExcept.TIMESettings.SetBugReportFileSize
 0001:00045E9C       madExcept.TIMESettings.SetNoDupExcepts
 0001:00045EC8       madExcept.TIMESettings.SetNoDupFreezes
 0001:00045EF4       madExcept.TIMESettings.SetDupExceptDef
 0001:00045F20       madExcept.TIMESettings.SetDupFreezeDef
 0001:00045F4C       madExcept.TIMESettings.SetListThreads
 0001:00045F74       madExcept.TIMESettings.SetShowCpuRegisters
 0001:00045F98       madExcept.TIMESettings.SetShowStackDump
 0001:00045FC0       madExcept.TIMESettings.SetShowDisAsm
 0001:00045FE8       madExcept.TIMESettings.SetHideUglyItems
 0001:00046014       madExcept.TIMESettings.SetShowRelativeAddrs
 0001:00046040       madExcept.TIMESettings.SetShowRelativeLines
 0001:0004606C       madExcept.TIMESettings.SetFormatDisassembly
 0001:00046098       madExcept.TIMESettings.SetLimitDisassembly
 0001:000460C0       madExcept.TIMESettings.SetTitleBar
 0001:00046128       madExcept.TIMESettings.SetExceptMsg
 0001:00046190       madExcept.TIMESettings.SetFrozenMsg
 0001:000461F8       madExcept.TIMESettings.SetBitFaultMsg
 0001:00046260       madExcept.TIMESettings.SetSendBtnCaption
 0001:000462C8       madExcept.TIMESettings.SetSaveBtnCaption
 0001:00046330       madExcept.TIMESettings.SetPrintBtnCaption
 0001:00046398       madExcept.TIMESettings.SetShowBtnCaption
 0001:00046400       madExcept.TIMESettings.SetContinueBtnCaption
 0001:0004646C       madExcept.TIMESettings.SetRestartBtnCaption
 0001:000464D8       madExcept.TIMESettings.SetCloseBtnCaption
 0001:00046540       madExcept.TIMESettings.SetOkBtnCaption
 0001:000465A8       madExcept.TIMESettings.SetDetailsBtnCaption
 0001:00046614       madExcept.TIMESettings.SetPleaseWaitTitle
 0001:0004667C       madExcept.TIMESettings.SetPleaseWaitText
 0001:000466E4       madExcept.TIMESettings.SetMailSubject
 0001:0004674C       madExcept.TIMESettings.SetMailBody
 0001:000467B4       madExcept.TIMESettings.SetSendBoxTitle
 0001:00046820       madExcept.TIMESettings.SetPrepareAttachMsg
 0001:00046888       madExcept.TIMESettings.SetMxLookupMsg
 0001:000468F0       madExcept.TIMESettings.SetConnectMsg
 0001:00046954       madExcept.TIMESettings.SetAuthMsg
 0001:000469B8       madExcept.TIMESettings.SetSendMailMsg
 0001:00046A20       madExcept.TIMESettings.SetFieldsMsg
 0001:00046A88       madExcept.TIMESettings.SetSendAttachMsg
 0001:00046AF0       madExcept.TIMESettings.SetSendFinalizeMsg
 0001:00046B5C       madExcept.TIMESettings.SetSendFailureMsg
 0001:00046BC4       madExcept.TIMESettings.GetAssistant
 0001:00046E68       madExcept.TIMESettings.FindProp
 0001:00046F5C       madExcept.TIMESettings.GetPropBool
 0001:00047028       madExcept.TIMESettings.GetPropInt
 0001:000470F4       madExcept.TIMESettings.GetPropStr
 0001:0004723C       madExcept.TIMESettings.GetPropDw
 0001:0004728C       madExcept.TIMESettings.SetPropBool
 0001:0004730C       madExcept.TIMESettings.SetPropInt
 0001:0004738C       madExcept.TIMESettings.SetPropStr
 0001:00047450       madExcept.TIMESettings.SetPropDw
 0001:000474A8       madExcept.TIMESettings.Reload
 0001:000474B4       madExcept.TIMESettings.FillFormCache
 0001:000476D0       madExcept.TIMESettings.ReadFormCache
 0001:00047954       madExcept.TIMESettings.GetSelf
 0001:00047958       madExcept.TIMESettings.Create
 0001:00047A30       madExcept.TIMESettings.Destroy
 0001:00047AFC       madExcept.FindMeSettings
 0001:00047C84       madExcept.MESettings
 0001:00047D48       madExcept.MESettings
 0001:00047E68       madExcept.MESettings
 0001:00047E88       madExcept.MESettingsEx
 0001:00047EB4       madExcept.TIMEFields.Lock
 0001:00047ED0       madExcept.TIMEFields.Unlock
 0001:00047EEC       madExcept.TIMEFields.GetItemCount
 0001:00047EF0       madExcept.TIMEFields.GetItem
 0001:00047F5C       madExcept.TIMEFields.SetItem
 0001:00048010       madExcept.TIMEFields.FindItem
 0001:000480C0       madExcept.TIMEFields.GetContent
 0001:00048160       madExcept.TIMEFields.SetContent
 0001:000482AC       madExcept.TIMEFields.Add
 0001:00048310       madExcept.TIMEFields.Insert
 0001:000484E4       madExcept.TIMEFields.Delete
 0001:0004858C       madExcept.TIMEFields.Delete
 0001:000485E0       madExcept.TIMEFields.Clone
 0001:000486D0       madExcept.TIMEFields.ClearExcParent
 0001:000486D8       madExcept.TIMEFields.ClearMesParent
 0001:000486E0       madExcept.TIMEFields.Modified
 0001:00048818       madExcept.TIMEFields.SetAddIndex
 0001:0004881C       madExcept.TIMEFields.AcceptData
 0001:00048824       madExcept.TIMEFields.Create
 0001:00048864       madExcept.TIMEFields.Destroy
 0001:00048894       madExcept.TIMEAttachments.Lock
 0001:000488A0       madExcept.TIMEAttachments.Unlock
 0001:000488AC       madExcept.TIMEAttachments.GetItemCount
 0001:000488B0       madExcept.TIMEAttachments.GetItem
 0001:00048968       madExcept.TIMEAttachments.Add
 0001:00048B40       madExcept.TIMEAttachments.Delete
 0001:00048C6C       madExcept.TIMEAttachments.Clear
 0001:00048CE4       madExcept.TIMEAttachments.Clone
 0001:00048D90       madExcept.TIMEAttachments.ClearParent
 0001:00048D98       madExcept.TIMEAttachments.Modified
 0001:00048EE8       madExcept.TIMEAttachments.Create
 0001:00048F28       madExcept.TIMEAttachments.Destroy
 0001:00048F58       madExcept.NewAttachments
 0001:00048F7C       madExcept.MailAddrCount
 0001:00048FC8       madExcept.FormatMailAddr
 0001:00049088       madExcept.PrepareAttachments
 0001:000496C4       madExcept.Ping
 0001:00049994       madExcept.GoOnline
 0001:00049A30       madExcept.AmOnline
 0001:00049C18       madExcept.SplitEMailAddr
 0001:00049D24       madExcept.SendMapiMailEx
 0001:0004A06C       madExcept.FourBitToHex
 0001:0004A078       madExcept.EncodeStr
 0001:0004A1CC       madExcept.SendShellMail
 0001:0004A528       madExcept.GetDnsIps
 0001:0004A8C4       madExcept.GetLabel
 0001:0004A9F4       madExcept.GetServers
 0001:0004AAE8       madExcept.StrToSAddr
 0001:0004AB54       madExcept.nslookup
 0001:0004AEF0       madExcept.MxLookup
 0001:0004B2B8       madExcept.SendStr
 0001:0004B368       madExcept.GetAttachSize
 0001:0004B3E4       madExcept.Mail_PrepareProgress
 0001:0004B5F8       madExcept.ConnectToServer
 0001:0004B6DC       madExcept.GetDateTimeStr
 0001:0004B814       madExcept.GetMessageId
 0001:0004B8B0       madExcept.RecvStr
 0001:0004BB84       madExcept.SendRecv
 0001:0004BC30       madExcept.SendFile
 0001:0004BFBC       madExcept.MailIt
 0001:0004C8F0       madExcept.CheckIt
 0001:0004CA40       madExcept.RecvStr
 0001:0004CBE0       madExcept.SendFile
 0001:0004CE68       madExcept.GetProxyServer
 0001:0004CF48       madExcept.RemoveProtocol
 0001:0004D014       madExcept.UploadIt
 0001:0004D7E8       madExcept.SmtpOrUpload
 0001:0004DA30       madExcept.DecryptPassword
 0001:0004DAC0       madExcept.GetBugReportFile
 0001:0004DBBC       madExcept.ForceDir
 0001:0004DCA0       madExcept.ExtractHeaderInfo
 0001:0004DDEC       madExcept.AddHeaderInfo
 0001:0004DF68       madExcept.CompareHeaderInfo
 0001:0004DFFC       madExcept.GetDesktopDir
 0001:0004E138       madExcept.SaveBugReportEx
 0001:0004E9A4       madExcept.ExtractBugReportHeaderField
 0001:0004EB58       madExcept.SendBugReportExThread
 0001:0004EB98       madExcept.SendBugReportEx
 0001:0004F6AC       madExcept.PrintBugReport
 0001:0004FAB0       madExcept.RestartApplication
 0001:0004FC00       madExcept.CloseApplication
 0001:0004FD30       madExcept..TExceptionBox
 0001:000506F8       madExcept.TExceptionBox.GetTextWidth
 0001:0005078C       madExcept.CheckColDec
 0001:000507E4       madExcept.DecCol
 0001:00050900       madExcept.TExceptionBox.DrawGraphic
 0001:00050BF0       madExcept.DrawLine
 0001:00050C70       madExcept.TExceptionBox.DrawButton
 0001:00050FE4       madExcept.TExceptionBox.FlashButton
 0001:0005114C       madExcept.TExceptionBox.CloseMainWnd
 0001:00051178       madExcept.TExceptionBox.DoDetails
 0001:000511A4       madExcept.DrawLineEx
 0001:000512A8       madExcept.GetClientCursorPos
 0001:000512C4       madExcept.CheckNcLabel
 0001:00051340       madExcept.DefWindowProcX
 0001:00051378       madExcept.TExceptionBox.DialogWndMethod
 0001:000520B8       madExcept.TExceptionBox.BugReportChanged
 0001:00052110       madExcept.TExceptionBox.ListViewWndProc
 0001:000529E8       madExcept.FindLines
 0001:00052B20       madExcept.FindColumns
 0001:00052D78       madExcept.PrepareListView_Columns
 0001:00052E84       madExcept.TrimStr9
 0001:00052EF4       madExcept.PrepareListView_Items
 0001:00053028       madExcept.PrepareListView_Header
 0001:000530B4       madExcept.PrepareListView_CpuRegs
 0001:00053168       madExcept.PrepareListView_StackDump
 0001:00053218       madExcept.PrepareListView_Modules
 0001:000532D8       madExcept.PrepareListView_Processes
 0001:0005349C       madExcept.PrepareListView_DisAsm
 0001:0005387C       madExcept.CutInPieces
 0001:00053A28       madExcept.AnalyzePiece
 0001:00053EB4       madExcept.ColumnExists
 0001:00053F10       madExcept.AddColumnStr
 0001:00053FE0       madExcept.PrepareListView_Thread
 0001:00054440       madExcept.PrepareListView_AutoFormat
 0001:00054974       madExcept.GetTabClientRect
 0001:000549C0       madExcept.CreateListView
 0001:00054DB4       madExcept.TExceptionBox.CheckCurrentTab
 0001:00055480       madExcept.TExceptionBox.CheckTabs
 0001:000558AC       madExcept.CreateWindow_
 0001:00055958       madExcept.CreateButton
 0001:00055AFC       madExcept.TExceptionBox.Create
 0001:00056CA4       madExcept.TExceptionBox.Destroy
 0001:00056D58       madExcept.DefaultBugReportHtml
 0001:000574B8       madExcept.ShowExceptBox
 0001:0005771C       madExcept.ShowException
 0001:000579D0       madExcept.CheckAutoSave
 0001:00057ABC       madExcept.DoExceptionAutoStuff
 0001:00057C5C       madExcept.CheckAutoStuff
 0001:00057D58       madExcept.ReceiveHandleException
 0001:0005823C       madExcept.HandleExceptionThread
 0001:00058298       madExcept.InitHandleExceptionThread
 0001:00058310       madExcept.CloseHandleExceptionThread
 0001:000583D4       madExcept.HandleException
 0001:0005879C       madExcept.CompletePhaseHandlerExists
 0001:00058850       madExcept.RegisterBugReportPlugin
 0001:00058914       madExcept.RegisterBugReportPlugin
 0001:000589D8       madExcept.UnregisterBugReportPlugin
 0001:00058ACC       madExcept.IsUserAdmin
 0001:00058B8C       madExcept.GetTSClientName
 0001:00058CB0       madExcept.TimeToStr
 0001:00058F0C       madExcept.GetOsVersionString
 0001:00058FBC       madExcept.GetOsLanguageString
 0001:00059004       madExcept.GetSystemUpTime
 0001:0005905C       madExcept.GetProgramUpTime
 0001:00059160       madExcept.GetCpuName
 0001:00059210       madExcept.GetCpuCount
 0001:00059304       madExcept.GetMemoryStatus
 0001:00059484       madExcept.Get9xResourceReport
 0001:00059540       madExcept.GetDisplayModeString
 0001:00059654       madExcept.GetProcessMemInfo
 0001:0005971C       madExcept.GetAllocatedMemory
 0001:000597C4       madExcept.AddPatch
 0001:00059924       madExcept.UndoPatches
 0001:00059A2C       madExcept.PatchJmp
 0001:00059A5C       madExcept.PatchCall
 0001:00059A7C       madExcept.PatchInt
 0001:00059A90       madExcept.TIMEException.GetPhase
 0001:00059A98       madExcept.TIMEException.GetCanContinue
 0001:00059AA0       madExcept.TIMEException.GetExceptType
 0001:00059AA8       madExcept.TIMEException.GetExceptObject
 0001:00059AAC       madExcept.TIMEException.GetExceptAddr
 0001:00059AB0       madExcept.TIMEException.GetCrashedThreadId
 0001:00059AB4       madExcept.TIMEException.GetSource
 0001:00059ABC       madExcept.TIMEException.GetRelatedObject
 0001:00059AC4       madExcept.TIMEException.GetPackage
 0001:00059ACC       madExcept.TIMEException.GetBugReport_
 0001:00059AE0       madExcept.TIMEException.GetCreateBugReport
 0001:00059AE8       madExcept.TIMEException.GetCreateScreenShot
 0001:00059AF0       madExcept.TIMEException.GetCallHandlers
 0001:00059AF8       madExcept.TIMEException.GetAppendScreenShot
 0001:00059B00       madExcept.TIMEException.GetShowSetting
 0001:00059B08       madExcept.TIMEException.GetShowAssistant
 0001:00059B20       madExcept.TIMEException.GetExceptClass
 0001:00059B8C       madExcept.TIMEException.GetExceptMessage
 0001:00059C0C       madExcept.TIMEException.GetCallstackCrc
 0001:00059C20       madExcept.TIMEException.GetContext
 0001:00059C30       madExcept.TIMEException.SetPhase
 0001:00059C48       madExcept.TIMEException.SetCanContinue
 0001:00059C5C       madExcept.TIMEException.SetCreateBugReport
 0001:00059C64       madExcept.TIMEException.SetCreateScreenShot
 0001:00059C6C       madExcept.TIMEException.SetCallHandlers
 0001:00059C74       madExcept.TIMEException.SetAppendScreenShot
 0001:00059C7C       madExcept.TIMEException.SetShowSetting
 0001:00059C84       madExcept.TIMEException.SetShowAssistant
 0001:00059D68       madExcept.GetDiskStr
 0001:00059EE0       madExcept.AddItem
 0001:00059FC8       madExcept.TIMEException.GetBugReportHeader
 0001:0005B694       madExcept.UpdateSection
 0001:0005B900       madExcept.GetThreadReport
 0001:0005BB5C       madExcept.GetCpuRegisters
 0001:0005BEE0       madExcept.GetStackDump
 0001:0005C188       madExcept.GetCleartextDisAsm
 0001:0005C280       madExcept.TIMEException.CompleteBugReport
 0001:0005C934       madExcept.TIMEException.GetCompleteThreadId
 0001:0005C93C       madExcept.IsThreadSuspended
 0001:0005C96C       madExcept.GetThreadInfos
 0001:0005CB18       madExcept.AddItem
 0001:0005CC00       madExcept.GetThreadStack
 0001:0005D210       madExcept.PrepareThreadReport
 0001:0005D404       madExcept.TIMEException.GetBugReportSections
 0001:0005D7E4       madExcept.TIMEException.SetBugReport
 0001:0005D83C       madExcept.TIMEException.GetBugReport
 0001:0005DE70       madExcept.TIMEException.GetScreenShot
 0001:0005DEF8       madExcept.TIMEException.SetScreenShot
 0001:0005DF48       madExcept.TIMEException.BeginUpdate
 0001:0005DF54       madExcept.TIMEException.EndUpdate
 0001:0005DF7C       madExcept.TIMEException.RegisterBugReportCallback
 0001:0005E0D8       madExcept.TIMEException.RegisterBugReportCallback
 0001:0005E258       madExcept.TIMEException.UnregisterBugReportCallback
 0001:0005E328       madExcept.TIMEException.UnregisterBugReportCallback
 0001:0005E404       madExcept.TIMEException.CriticalBugReportCallbackExists
 0001:0005E4BC       madExcept.TIMEException.SetModified
 0001:0005E550       madExcept.TIMEException.FireChangeEvent
 0001:0005E6CC       madExcept.TIMEException.Show
 0001:0005E6DC       madExcept.TIMEException.ShowBugReport
 0001:0005E6FC       madExcept.TIMEException.SendBugReport
 0001:0005E7F8       madExcept.TIMEException.SaveBugReport
 0001:0005E8A0       madExcept.TIMEException.PrintBugReport
 0001:0005E93C       madExcept.TIMEException.ContinueApplication
 0001:0005E984       madExcept.TIMEException.RestartApplication
 0001:0005E9EC       madExcept.TIMEException.CloseApplication
 0001:0005EA54       madExcept.TIMEException.FindProp
 0001:0005EB48       madExcept.TIMEException.GetMailWasSent
 0001:0005EB50       madExcept.TIMEException.SetMailWasSent
 0001:0005EB58       madExcept.TIMEException.GetMailWasSaved
 0001:0005EB60       madExcept.TIMEException.SetMailWasSaved
 0001:0005EB68       madExcept.TIMEException.FirstCompleteCallback
 0001:0005EB80       madExcept.TIMEException.FirstAutoSave
 0001:0005EB98       madExcept.TIMEException.PSendThread
 0001:0005EBA0       madExcept.TIMEException.Create
 0001:0005EC18       madExcept.TIMEException.Destroy
 0001:0005ED60       madExcept.EnumWindowsProc
 0001:0005EE38       madExcept.GetExceptBoxHandle
 0001:0005EE50       madExcept.FindClass
 0001:0005EEF4       madExcept.CheckFilters
 0001:0005EFB8       madExcept.NewException
 0001:0005F38C       madExcept.Esp
 0001:0005F394       madExcept.Ebp
 0001:0005F398       madExcept.MyExceptObjProc
 0001:0005F4C0       madExcept.MyExceptObjProc1
 0001:0005F4C8       madExcept.MyExceptObjProc2
 0001:0005F4D4       madExcept.MyRaiseExceptProc
 0001:0005F528       madExcept.InterceptSShowExcept
 0001:0005F554       madExcept.InterceptAShowExcept
 0001:0005F57C       madExcept.InterceptAHandleExcept
 0001:0005F5C0       madExcept.InterceptCGIHandleException
 0001:0005F5E8       madExcept.InterceptISAPIHandleException
 0001:0005F710       madExcept.RemoveIR
 0001:0005F844       madExcept.InterceptServerSupportFunction
 0001:0005F9E8       madExcept.InterceptHttpExtensionProc
 0001:0005FCF8       madExcept.InterceptSynchronize
 0001:0005FD54       madExcept.InterceptWriteErrorMessage
 0001:0005FE3C       madExcept.InterceptInitializePackage
 0001:0005FE9C       madExcept.Log1
 0001:0005FEA0       madExcept.RealStuff
 0001:0005FEC4       madExcept.InterceptFinalizeUnits
 0001:0005FF20       madExcept.InterceptExceptProc
 0001:0005FF74       madExcept.Replace1Str
 0001:00060004       madExcept.CreateAVStr
 0001:00060264       madExcept.MapToRunError
 0001:00060530       madExcept.RtlUnwind
 0001:00060538       madExcept.InterceptExceptionHandler
 0001:0006059C       madExcept.InterceptHandleAutoException
 0001:0006064C       madExcept.HandleHiddenException
 0001:00060844       madExcept.InterceptFreeExceptObject
 0001:00060854       madExcept.PatchAPI
 0001:00060994       madExcept.UnpatchAPI
 0001:00060A78       madExcept.CallThreadProcSafe
 0001:00060AB8       madExcept.ThreadExceptFrame
 0001:00060B78       madExcept.HookedTThreadExecute
 0001:00060C1C       madExcept.HandleCreateThreadHook
 0001:00061000       madExcept.HookedCreateThread
 0001:000610AC       madExcept.HookedCreateRemoteThread
 0001:00061158       madExcept.UserWorkItemExceptFrame
 0001:00061204       madExcept.HookedQueueUserWorkItem
 0001:00061230       madExcept.PatchRelCall
 0001:00061304       madExcept.InitCreateThreadHook
 0001:00061470       madExcept.CloseCreateThreadHook
 0001:00061548       madExcept.GetMessageCallbackA
 0001:0006156C       madExcept.PeekMessageCallbackA
 0001:00061594       madExcept.GetMessageCallbackW
 0001:000615B8       madExcept.PeekMessageCallbackW
 0001:000615E0       madExcept.InitMessageHooks
 0001:000616DC       madExcept.CloseMessageHooks
 0001:00061734       madExcept.GetBugReport
 0001:000617CC       madExcept.madTraceProcess
 0001:000619CC       madExcept.EnumWindowProc
 0001:00061AC0       madExcept.HyperJumpCallstack
 0001:00061BC0       madExcept.UninstallUnhandledExceptionFilter
 0001:00061BE0       madExcept.CheckRestart
 0001:00061CDC       madExcept.AddPtr
 0001:00061CE4       madExcept.System_DoneExcept
 0001:00061CF8       madExcept.System_Halt0
 0001:00061D0C       madExcept.System_HandleAutoException
 0001:00061D20       madExcept.System_HandleAnyException
 0001:00061D34       madExcept.System_HandleOnException
 0001:00061D48       madExcept.System_RaiseExcept
 0001:00061D5C       madExcept.CalcCheckSum
 0001:00061DB8       madExcept.CheckFileCrc
 0001:00061F7C       madExcept.FindBpl
 0001:000620F4       madExcept.CalibrateModule
 0001:00062220       madExcept.CalibrateModules
 0001:00062308       madExcept.Init
 0001:000638BC       madExcept.Close
 0001:00063A94       madExcept.Finalization
 0001:00063BC0       madLinkDisAsm.Finalization
 0001:00063CC4       madListHardware.AddDevice
 0001:00063ED4       madListHardware.GetHardwareList9x
 0001:0006432C       madListHardware.GetDeviceInfo
 0001:000643C8       madListHardware.GetHardwareListNt
 0001:000647F4       madListHardware.GetHardwareList
 0001:00064A88       madListHardware.Finalization
 0001:00064B90       madListProcesses.AddItem
 0001:00064DAC       madListProcesses.EnumProcesses9x
 0001:00064F3C       madListProcesses.EnumProcessesNt
 0001:000652F0       madListProcesses.PriorityClassToStr
 0001:00065498       madListProcesses.GetProcessList
 0001:000658B4       madListProcesses.Finalization
 0001:0006598C       madListModules.GetModuleList
 0001:00065DD0       madListModules.Finalization
 0001:00065EE8       Character.TCharacter.CheckLetter
 0001:00065EF4       Character.TCharacter.CheckLetterOrDigit
 0001:00065F04       Character.TCharacter.IsLatin1
 0001:00065F10       Character.TCharacter.IsLetter
 0001:00065F9C       Character.TCharacter.IsLetterOrDigit
 0001:00066004       Character.TCharacter.IsAscii
 0001:00066010       Character.TCharacter.Initialize
 0001:000660B8       StrUtils.PosEx
 0001:00066330       SysUtils..Exception
 0001:000668F8       SysUtils..EHeapException
 0001:000669EC       SysUtils..EOutOfMemory
 0001:00066A88       SysUtils..EInOutError
 0001:00066B40       SysUtils..EExternal
 0001:00066BF8       SysUtils..EExternalException
 0001:00066CA0       SysUtils..EIntError
 0001:00066D34       SysUtils..EDivByZero
 0001:00066DCC       SysUtils..ERangeError
 0001:00066E64       SysUtils..EIntOverflow
 0001:00066F00       SysUtils..EMathError
 0001:00066F98       SysUtils..EInvalidOp
 0001:00067030       SysUtils..EZeroDivide
 0001:000670C8       SysUtils..EOverflow
 0001:0006715C       SysUtils..EUnderflow
 0001:000671F4       SysUtils..EInvalidPointer
 0001:00067294       SysUtils..EInvalidCast
 0001:00067330       SysUtils..EConvertError
 0001:000673CC       SysUtils..EAccessViolation
 0001:00067470       SysUtils..EPrivilege
 0001:00067508       SysUtils..EStackOverflow
 0001:000675A8       SysUtils..EControlC
 0001:0006763C       SysUtils..EVariantError
 0001:000676D8       SysUtils..EAssertionFailed
 0001:0006777C       SysUtils..EAbstractError
 0001:0006781C       SysUtils..EIntfCastError
 0001:000678BC       SysUtils..EOSError
 0001:0006796C       SysUtils..ESafecallException
 0001:00067A14       SysUtils..EMonitor
 0001:00067AA8       SysUtils..EMonitorLockException
 0001:00067B54       SysUtils..ENoMonitorSupportException
 0001:00067CF4       SysUtils..TThreadLocalCounter
 0001:00067F18       SysUtils..TMultiReadExclusiveWriteSynchronizer
 0001:00068220       SysUtils..EEncodingError
 0001:000682C0       SysUtils..TEncoding
 0001:00068C30       SysUtils.TEncoding.GetMaxByteCount
 0001:00068C38       SysUtils.TEncoding.GetMaxCharCount
 0001:00068C40       SysUtils.TEncoding.GetPreamble
 0001:00068C48       SysUtils..TMBCSEncoding
 0001:00068F0C       SysUtils..TUTF7Encoding
 0001:0006908C       SysUtils..TUTF8Encoding
 0001:0006924C       SysUtils..TUnicodeEncoding
 0001:0006940C       SysUtils..TBigEndianUnicodeEncoding
 0001:00069518       SysUtils.DivMod
 0001:00069534       SysUtils.ConvertErrorFmt
 0001:00069558       SysUtils.UpperCaseFromAnsiString
 0001:000695A8       SysUtils.UpperCase
 0001:00069620       SysUtils.LowerCaseFromAnsiString
 0001:00069670       SysUtils.LowerCase
 0001:000696E8       SysUtils.CompareStr
 0001:000697A8       SysUtils.CompareMem
 0001:0006983C       SysUtils.CompareText
 0001:00069938       SysUtils.SameText
 0001:0006995C       SysUtils.AnsiCompareStr
 0001:00069A28       SysUtils.AnsiCompareText
 0001:00069AF4       SysUtils.Trim
 0001:00069BB4       SysUtils.AnsiQuotedStr
 0001:00069D54       SysUtils.AnsiExtractQuotedStr
 0001:00069E90       SysUtils.IsValidIdent
 0001:0006A03C       SysUtils.CvtInt
 0001:0006A088       SysUtils.CvtIntW
 0001:0006A0E8       SysUtils.IntToStr
 0001:0006A108       SysUtils.UIntToStr
 0001:0006A144       SysUtils.CvtInt64W
 0001:0006A228       SysUtils.CvtInt64
 0001:0006A2F4       SysUtils.IntToStr
 0001:0006A31C       SysUtils.IntToHex
 0001:0006A344       SysUtils.StrToInt
 0001:0006A380       SysUtils.StrToIntDef
 0001:0006A398       SysUtils.TryStrToInt
 0001:0006A3B8       SysUtils.TryStrToInt64
 0001:0006A3D8       SysUtils.VerifyBoolStrArray
 0001:0006A478       SysUtils.CompareWith
 0001:0006A4C8       SysUtils.TryStrToBool
 0001:0006A570       SysUtils.BoolToStr
 0001:0006A604       SysUtils.EnumStringModules
 0001:0006A640       SysUtils.FindStringResource
 0001:0006A6B8       SysUtils.LoadStr
 0001:0006A6CC       SysUtils.FileOpen
 0001:0006A724       SysUtils.FileCreate
 0001:0006A768       SysUtils.FileRead
 0001:0006A794       SysUtils.FileWrite
 0001:0006A7C0       SysUtils.FileSeek
 0001:0006A810       SysUtils.LastDelimiter
 0001:0006A8EC       SysUtils.ExtractFileName
 0001:0006A92C       SysUtils.ExpandFileName
 0001:0006A9C0       SysUtils.BackfillGetDiskFreeSpaceEx
 0001:0006AA34       SysUtils.StrLen
 0001:0006AA64       SysUtils.StrLen
 0001:0006AA84       SysUtils.StrEnd
 0001:0006AAA0       SysUtils.StrMove
 0001:0006AAB0       SysUtils.StrLCopy
 0001:0006AAEC       SysUtils.StrLComp
 0001:0006AB38       SysUtils.StrLIComp
 0001:0006ABA4       SysUtils.StrScan
 0001:0006ABC0       SysUtils.StrRScan
 0001:0006ABF0       SysUtils.StrPos
 0001:0006AC48       SysUtils.StrPosLen
 0001:0006ACA8       SysUtils.WideStrAlloc
 0001:0006ACC0       SysUtils.StrNew
 0001:0006ACEC       SysUtils.FormatError
 0001:0006AD34       SysUtils.FormatBuf
 0001:0006AD50       SysUtils.StrLFmt
 0001:0006AD94       SysUtils.Format
 0001:0006ADA8       SysUtils.FmtStr
 0001:0006AF40       SysUtils.WideFormatError
 0001:0006AFC0       SysUtils.WideFormatVarToStr
 0001:0006AFE4       SysUtils.WideFloatToText
 0001:0006B000       SysUtils.WideFormatBuf
 0001:0006B3E4       SysUtils.PutExponent
 0001:0006B448       SysUtils.FloatToText
 0001:0006B748       SysUtils.FloatToDecimal
 0001:0006B974       SysUtils.TextToFloat
 0001:0006BA88       SysUtils.TextToFloat
 0001:0006BAEC       SysUtils.FloatToStr
 0001:0006BB1C       SysUtils.CurrToStr
 0001:0006BB4C       SysUtils.TryStrToFloat
 0001:0006BB68       SysUtils.TryStrToFloat
 0001:0006BBD8       SysUtils.TryStrToFloat
 0001:0006BC48       SysUtils.TryStrToCurr
 0001:0006BC64       SysUtils.DateTimeToTimeStamp
 0001:0006BCA8       SysUtils.TryEncodeTime
 0001:0006BD18       SysUtils.DecodeTime
 0001:0006BD74       SysUtils.IsLeapYear
 0001:0006BDB0       SysUtils.TryEncodeDate
 0001:0006BE7C       SysUtils.DecodeDateFully
 0001:0006BFC8       SysUtils.DecodeDate
 0001:0006BFE8       SysUtils.DayOfWeek
 0001:0006C010       SysUtils.CurrentYear
 0001:0006C024       SysUtils.AppendChars
 0001:0006C068       SysUtils.AppendString
 0001:0006C0DC       SysUtils.AppendNumber
 0001:0006C128       SysUtils.GetCount
 0001:0006C15C       SysUtils.GetDate
 0001:0006C194       SysUtils.GetTime
 0001:0006C1D4       SysUtils.ConvertEraString
 0001:0006C360       SysUtils.ConvertYearString
 0001:0006C48C       SysUtils.AppendFormat
 0001:0006CC80       SysUtils.DateTimeToString
 0001:0006CCDC       SysUtils.ScanBlanks
 0001:0006CD48       SysUtils.ScanNumber
 0001:0006CE10       SysUtils.ScanString
 0001:0006CEF0       SysUtils.ScanChar
 0001:0006CF9C       SysUtils.GetDateOrder
 0001:0006D034       SysUtils.ScanToNumber
 0001:0006D0F8       SysUtils.GetEraYearOffset
 0001:0006D14C       SysUtils.EraToYear
 0001:0006D1A8       SysUtils.ScanDate
 0001:0006D560       SysUtils.ScanTime
 0001:0006D768       SysUtils.TryStrToDate
 0001:0006D7F8       SysUtils.TryStrToTime
 0001:0006D888       SysUtils.TryStrToDateTime
 0001:0006DAB8       SysUtils.SysErrorMessage
 0001:0006DB08       SysUtils.GetLocaleStr
 0001:0006DB54       SysUtils.GetLocaleChar
 0001:0006DB80       SysUtils.LocalGetLocaleStr
 0001:0006DBC0       SysUtils.GetMonthDayNames
 0001:0006DCE4       SysUtils.EnumEraNames
 0001:0006DD20       SysUtils.EnumEraYearOffsets
 0001:0006DD98       SysUtils.GetEraNamesAndYearOffsets
 0001:0006DE4C       SysUtils.TranslateDateFormat
 0001:0006E10C       SysUtils.ConvertAddr
 0001:0006E118       SysUtils.ExceptionErrorMessage
 0001:0006E308       SysUtils.ShowException
 0001:0006E44C       SysUtils.Exception.Create
 0001:0006E488       SysUtils.Exception.CreateFmt
 0001:0006E508       SysUtils.Exception.CreateRes
 0001:0006E580       SysUtils.Exception.CreateRes
 0001:0006E5BC       SysUtils.Exception.CreateResFmt
 0001:0006E650       SysUtils.Exception.CreateResFmt
 0001:0006E6E4       SysUtils.Exception.CreateHelp
 0001:0006E72C       SysUtils.Exception.CreateFmtHelp
 0001:0006E7B4       SysUtils.Exception.CreateResHelp
 0001:0006E834       SysUtils.Exception.CreateResHelp
 0001:0006E87C       SysUtils.Exception.CreateResFmtHelp
 0001:0006E918       SysUtils.Exception.CreateResFmtHelp
 0001:0006E9B4       SysUtils.Exception.Destroy
 0001:0006E9F8       SysUtils.Exception.GetBaseException
 0001:0006EA04       SysUtils.Exception.GetStackTrace
 0001:0006EA30       SysUtils.Exception.RaiseOuterException
 0001:0006EA44       SysUtils.Exception.ThrowOuterException
 0001:0006EA58       SysUtils.Exception.RaisingException
 0001:0006EA84       SysUtils.Exception.SetInnerException
 0001:0006EAAC       SysUtils.Exception.SetStackInfo
 0001:0006EAB0       SysUtils.Exception.ToString
 0001:0006EB08       SysUtils.EHeapException.FreeInstance
 0001:0006EB14       SysUtils.EHeapException.RaisingException
 0001:0006EB64       SysUtils.CreateInOutError
 0001:0006ED64       SysUtils.ErrorHandler
 0001:0006EDBC       SysUtils.CreateAssertException
 0001:0006EE68       SysUtils.RaiseAssertException
 0001:0006EE78       SysUtils.AssertErrorHandler
 0001:0006EE94       SysUtils.AbstractErrorHandler
 0001:0006EEAC       SysUtils.MapException
 0001:0006EF2C       SysUtils.GetExceptionClass
 0001:0006EF4C       SysUtils.CreateAVObject
 0001:0006F118       SysUtils.GetExceptionObject
 0001:0006F1F0       SysUtils.RaiseExceptObject
 0001:0006F214       SysUtils.ExceptHandler
 0001:0006F224       SysUtils.InitExceptions
 0001:0006F2B4       SysUtils.DoneExceptions
 0001:0006F334       SysUtils.Exception.Destroy@
 0001:0006F344       SysUtils.Push
 0001:0006F364       SysUtils.Pop
 0001:0006F384       SysUtils.NewSyncObj
 0001:0006F3E8       SysUtils.FreeSyncObj
 0001:0006F410       SysUtils.NewWaitObj
 0001:0006F450       SysUtils.FreeWaitObj
 0001:0006F47C       SysUtils.WaitAndOrSignalObj
 0001:0006F4B4       SysUtils.InitMonitorSupport
 0001:0006F4C0       SysUtils.CleanStack
 0001:0006F4F0       SysUtils.CleanEventList
 0001:0006F51C       SysUtils.DoneMonitorSupport
 0001:0006F554       SysUtils.InitPlatformId
 0001:0006F5C4       SysUtils.ElementToCharLen
 0001:0006F668       SysUtils.ByteToCharLen
 0001:0006F670       SysUtils.ElementToCharIndex
 0001:0006F750       SysUtils.ByteToCharIndex
 0001:0006F758       SysUtils.CountChars
 0001:0006F878       SysUtils.CharToElementIndex
 0001:0006F958       SysUtils.CharToByteIndex
 0001:0006F960       SysUtils.CharToElementLen
 0001:0006FA70       SysUtils.CharToByteLen
 0001:0006FA78       SysUtils.StrCharLength
 0001:0006FAA8       SysUtils.StrNextChar
 0001:0006FAD8       SysUtils.CharLength
 0001:0006FB6C       SysUtils.NextCharIndex
 0001:0006FC08       SysUtils.AnsiPos
 0001:0006FCE8       SysUtils.AnsiStrPos
 0001:0006FCF0       SysUtils.AnsiStrRScan
 0001:0006FCF8       SysUtils.AnsiStrScan
 0001:0006FD00       SysUtils.InitLeadBytes
 0001:0006FD5C       SysUtils.InitSysLocale
 0001:0006FE14       SysUtils.GetFormatSettings
 0001:00070340       SysUtils.HashNameMBCS
 0001:000703D4       SysUtils.HashName
 0001:0007040C       SysUtils.ModuleUnloaded
 0001:00070524       SysUtils.Sleep
 0001:0007052C       SysUtils.RaiseLastOSError
 0001:00070538       SysUtils.RaiseLastOSError
 0001:000705D0       SysUtils.Win32Check
 0001:000705E0       SysUtils.FreeTerminateProcs
 0001:00070604       SysUtils.InitDriveSpacePtr
 0001:00070680       SysUtils.InterlockedIncrement
 0001:0007068C       SysUtils.InterlockedDecrement
 0001:00070698       SysUtils.InterlockedExchange
 0001:000706A0       SysUtils.InterlockedExchangeAdd
 0001:000706A8       SysUtils.TThreadLocalCounter.Destroy
 0001:00070700       SysUtils.TThreadLocalCounter.HashIndex
 0001:0007071C       SysUtils.TThreadLocalCounter.Open
 0001:00070794       SysUtils.TThreadLocalCounter.Close
 0001:0007079C       SysUtils.TThreadLocalCounter.Delete
 0001:000707AC       SysUtils.TThreadLocalCounter.Recycle
 0001:000707F0       SysUtils.TMultiReadExclusiveWriteSynchronizer.Create
 0001:00070864       SysUtils.TMultiReadExclusiveWriteSynchronizer.Destroy
 0001:000708AC       SysUtils.TMultiReadExclusiveWriteSynchronizer.BlockReaders
 0001:000708B8       SysUtils.TMultiReadExclusiveWriteSynchronizer.UnblockReaders
 0001:000708C4       SysUtils.TMultiReadExclusiveWriteSynchronizer.UnblockOneWriter
 0001:000708D0       SysUtils.TMultiReadExclusiveWriteSynchronizer.WaitForReadSignal
 0001:000708E0       SysUtils.TMultiReadExclusiveWriteSynchronizer.WaitForWriteSignal
 0001:000708F0       SysUtils.TMultiReadExclusiveWriteSynchronizer.BeginWrite
 0001:0007099C       SysUtils.TMultiReadExclusiveWriteSynchronizer.EndWrite
 0001:000709EC       SysUtils.TMultiReadExclusiveWriteSynchronizer.BeginRead
 0001:00070A5C       SysUtils.TMultiReadExclusiveWriteSynchronizer.EndRead
 0001:00070AC4       SysUtils.FreeAndNil
 0001:00070AD4       SysUtils.Supports
 0001:00070AF8       SysUtils.Supports
 0001:00070B90       SysUtils.ClearHashTables
 0001:00070BC0       SysUtils.TEncoding.Convert
 0001:00070C34       SysUtils.TEncoding.Convert
 0001:00070CB0       SysUtils.TEncoding.Destroy@
 0001:00070CC4       SysUtils.TEncoding.FreeEncodings
 0001:00070D34       SysUtils.TEncoding.GetBigEndianUnicode
 0001:00070D70       SysUtils.ContainsPreamble
 0001:00070DCC       SysUtils.TEncoding.GetBufferEncoding
 0001:00070ED4       SysUtils.TEncoding.GetByteCount
 0001:00070EF0       SysUtils.TEncoding.GetByteCount
 0001:00070F9C       SysUtils.TEncoding.GetByteCount
 0001:00071020       SysUtils.TEncoding.GetByteCount
 0001:00071124       SysUtils.TEncoding.GetBytes
 0001:0007116C       SysUtils.TEncoding.GetBytes
 0001:000712D8       SysUtils.TEncoding.GetBytes
 0001:0007137C       SysUtils.TEncoding.GetBytes
 0001:00071520       SysUtils.TEncoding.GetCharCount
 0001:0007153C       SysUtils.TEncoding.GetCharCount
 0001:00071608       SysUtils.TEncoding.GetChars
 0001:0007162C       SysUtils.TEncoding.GetChars
 0001:0007172C       SysUtils.TEncoding.GetChars
 0001:00071880       SysUtils.TEncoding.GetDefault
 0001:000718C0       SysUtils.TEncoding.GetEncoding
 0001:000718D0       SysUtils.TEncoding.GetString
 0001:000718F4       SysUtils.TEncoding.GetString
 0001:00071964       SysUtils.TEncoding.GetUnicode
 0001:000719A0       SysUtils.TEncoding.GetUTF8
 0001:000719DC       SysUtils.TEncoding.IsStandardEncoding
 0001:00071A14       SysUtils.TMBCSEncoding.Create
 0001:00071A54       SysUtils.TMBCSEncoding.Create
 0001:00071A9C       SysUtils.TMBCSEncoding.Create
 0001:00071B18       SysUtils.TMBCSEncoding.GetByteCount
 0001:00071B30       SysUtils.TMBCSEncoding.GetBytes
 0001:00071B54       SysUtils.TMBCSEncoding.GetCharCount
 0001:00071B68       SysUtils.TMBCSEncoding.GetChars
 0001:00071B88       SysUtils.TMBCSEncoding.GetMaxByteCount
 0001:00071B90       SysUtils.TMBCSEncoding.GetMaxCharCount
 0001:00071B94       SysUtils.TMBCSEncoding.GetPreamble
 0001:00071BB0       SysUtils.TUTF7Encoding.Create
 0001:00071BEC       SysUtils.TUTF7Encoding.GetByteCount
 0001:00071BF4       SysUtils.TUTF7Encoding.GetBytes
 0001:00071C0C       SysUtils.TUTF7Encoding.GetCharCount
 0001:00071C14       SysUtils.TUTF7Encoding.GetChars
 0001:00071C2C       SysUtils.TUTF7Encoding.GetMaxByteCount
 0001:00071C34       SysUtils.TUTF7Encoding.GetMaxCharCount
 0001:00071C38       SysUtils.TUTF8Encoding.Create
 0001:00071C78       SysUtils.TUTF8Encoding.GetMaxByteCount
 0001:00071C80       SysUtils.TUTF8Encoding.GetMaxCharCount
 0001:00071C84       SysUtils.TUTF8Encoding.GetPreamble
 0001:00071CB4       SysUtils.TUnicodeEncoding.Create
 0001:00071CE0       SysUtils.TUnicodeEncoding.GetByteCount
 0001:00071CE8       SysUtils.TUnicodeEncoding.GetBytes
 0001:00071D04       SysUtils.TUnicodeEncoding.GetCharCount
 0001:00071D10       SysUtils.TUnicodeEncoding.GetChars
 0001:00071D30       SysUtils.TUnicodeEncoding.GetMaxByteCount
 0001:00071D38       SysUtils.TUnicodeEncoding.GetMaxCharCount
 0001:00071D48       SysUtils.TUnicodeEncoding.GetPreamble
 0001:00071D70       SysUtils.TBigEndianUnicodeEncoding.GetBytes
 0001:00071DA4       SysUtils.TBigEndianUnicodeEncoding.GetChars
 0001:00071DE0       SysUtils.TBigEndianUnicodeEncoding.GetPreamble
 0001:00072198       SysUtils.Finalization
 0001:00072340       VarUtils.VariantInit
 0001:00072348       VarUtils.VariantClear
 0001:00072350       VarUtils.VariantCopy
 0001:00072358       VarUtils.VariantChangeType
 0001:00072360       VarUtils.BackupVariantChangeTypeEx
 0001:00072390       VarUtils.UniUnimplemented
 0001:0007239C       VarUtils.BiUnimplemented
 0001:000723A8       VarUtils.CmpUnimplemented
 0001:000723B4       VarUtils.BackupVarI4FromStr
 0001:00072420       VarUtils.BackupVarR4FromStr
 0001:0007248C       VarUtils.BackupVarR8FromStr
 0001:000724F8       VarUtils.BackupVarDateFromStr
 0001:00072564       VarUtils.BackupVarCyFromStr
 0001:000725D0       VarUtils.BackupVarBoolFromStr
 0001:00072650       VarUtils.BackupVarBStrFromCy
 0001:000726C0       VarUtils.BackupVarBStrFromDate
 0001:00072734       VarUtils.BackupVarBStrFromBool
 0001:000727A8       VarUtils.SafeArrayCreate
 0001:000727B0       VarUtils.SafeArrayGetLBound
 0001:000727B8       VarUtils.SafeArrayGetUBound
 0001:000727C0       VarUtils.SafeArrayPtrOfIndex
 0001:000727C8       VarUtils.FindProc
 0001:000727F4       VarUtils.InitializeVarUtils
 0001:00072B0C       VarUtils.Finalization
 0001:00072BB4       Variants..TCustomVariantType
 0001:000730B4       Variants.TCustomVariantType.Clear
 0001:000730BC       Variants.TCustomVariantType.Copy
 0001:000730C4       Variants..EVariantInvalidOpError
 0001:00073174       Variants..EVariantTypeCastError
 0001:00073220       Variants..EVariantOverflowError
 0001:000732CC       Variants..EVariantInvalidArgError
 0001:0007337C       Variants..EVariantBadVarTypeError
 0001:0007342C       Variants..EVariantBadIndexError
 0001:000734D8       Variants..EVariantArrayLockedError
 0001:0007358C       Variants..EVariantArrayCreateError
 0001:00073640       Variants..EVariantNotImplError
 0001:000736EC       Variants..EVariantOutOfMemoryError
 0001:000737A0       Variants..EVariantUnexpectedError
 0001:00073850       Variants..EVariantDispatchError
 0001:000738FC       Variants..EVariantInvalidNullOpError
 0001:000739B4       Variants.VarCastError
 0001:00073A08       Variants.VarCastError
 0001:00073AA4       Variants.VarInvalidOp
 0001:00073AF8       Variants.VarInvalidNullOp
 0001:00073B4C       Variants.VarOverflowError
 0001:00073BE8       Variants.VarArrayCreateError
 0001:00073C3C       Variants.TranslateResult
 0001:00073E90       Variants.VarResultCheck
 0001:00073E9C       Variants.VarResultCheck
 0001:00073ED0       Variants.HandleConversionException
 0001:00073F54       Variants.@DispInvokeError
 0001:00073FA8       Variants.@VarNull
 0001:00073FBC       Variants.InBounds
 0001:00073FEC       Variants.Increment
 0001:00074048       Variants.VarArrayClear
 0001:000741C4       Variants.VarClearDeep
 0001:00074258       Variants.@VarClear
 0001:0007426C       Variants.@VarClr
 0001:00074274       Variants.InBounds
 0001:000742A4       Variants.Increment
 0001:00074300       Variants.VarArrayCopyForEach
 0001:000744CC       Variants.VarCopyCopyProc
 0001:000744D4       Variants.VarCopyDeep
 0001:000745C0       Variants.@VarCopy
 0001:00074604       Variants.VarCastAsAny
 0001:00074670       Variants.VarCastAsOleStr
 0001:000746BC       Variants.VarCastAsString
 0001:00074708       Variants.VarCastAsUString
 0001:00074754       Variants.VarCastAsDispatch
 0001:000747A0       Variants.VarCastAsInterface
 0001:000747EC       Variants.VarCastViaOS
 0001:0007486C       Variants.VarCastRare
 0001:000748D8       Variants.@VarCast
 0001:00074B2C       Variants.VarToIntAsString
 0001:00074BE0       Variants.VarToIntViaOS
 0001:00074C1C       Variants.VarToIntAny
 0001:00074C80       Variants.VarToIntCustom
 0001:00074CC4       Variants.@VarToInteger
 0001:00075174       Variants.@VarToShortInt
 0001:00075228       Variants.@VarToByte
 0001:000752D4       Variants.@VarToSmallInt
 0001:000753D0       Variants.@VarToWord
 0001:000754AC       Variants.@VarToLongWord
 0001:00075598       Variants.VarToInt64ViaOS
 0001:00075644       Variants.VarToInt64AsString
 0001:00075744       Variants.VarToInt64Any
 0001:000757B0       Variants.VarToInt64Custom
 0001:000757FC       Variants.@VarToInt64
 0001:00075C8C       Variants.@VarToUInt64
 0001:00075DF0       Variants.VarToBoolAsString
 0001:00075EB4       Variants.VarToBoolViaOS
 0001:00075EF4       Variants.VarToBoolAny
 0001:00075F58       Variants.VarToBoolCustom
 0001:00075FA4       Variants.@VarToBoolean
 0001:00076340       Variants.@VarToBool
 0001:0007634C       Variants.VarToDoubleAsString
 0001:00076410       Variants.VarToDoubleViaOS
 0001:0007645C       Variants.VarToDoubleAny
 0001:000764C0       Variants.VarToDoubleCustom
 0001:0007650C       Variants.@VarToDouble
 0001:000768FC       Variants.@VarToReal
 0001:00076918       Variants.@VarToSingle
 0001:00076ADC       Variants.VarToDateAsString
 0001:00076BC8       Variants.VarToDateAsDouble
 0001:00076C28       Variants.VarToDateViaOS
 0001:00076C74       Variants.VarToDateAny
 0001:00076CD8       Variants.VarToDateCustom
 0001:00076D24       Variants.@VarToDate
 0001:00077108       Variants.VarToCurrencyAsString
 0001:000771C4       Variants.VarToCurrencyAsDouble
 0001:00077224       Variants.VarToCurrencyViaOS
 0001:00077270       Variants.VarToCurrencyAny
 0001:000772D4       Variants.VarToCurrencyCustom
 0001:00077320       Variants.@VarToCurrency
 0001:0007777C       Variants.CurrToWStrViaOS
 0001:000777B4       Variants.DateToWStrViaOS
 0001:000777EC       Variants.BoolToWStrViaOS
 0001:000778B4       Variants.VarToLStrViaOS
 0001:0007796C       Variants.VarToLStrAny
 0001:000779D0       Variants.VarToLStrCustom
 0001:00077A58       Variants.@VarToLStr
 0001:00078100       Variants.VarToWStrViaOS
 0001:000781CC       Variants.VarToWStrAny
 0001:00078230       Variants.VarToWStrCustom
 0001:0007830C       Variants.@VarToWStr
 0001:00078908       Variants.VarToUStrAny
 0001:0007896C       Variants.VarToUStrCustom
 0001:00078A34       Variants.@VarToUStr
 0001:0007903C       Variants.AnyToIntf
 0001:000790B4       Variants.@VarToIntf
 0001:00079180       Variants.@VarToDisp
 0001:0007922C       Variants.@VarFromInt
 0001:00079268       Variants.@VarFromInteger
 0001:00079288       Variants.@VarFromByte
 0001:000792A8       Variants.@VarFromWord
 0001:000792C8       Variants.@VarFromLongWord
 0001:000792E8       Variants.@VarFromUInt64
 0001:00079314       Variants.@VarFromShortInt
 0001:00079334       Variants.@VarFromSmallInt
 0001:00079354       Variants.@VarFromInt64
 0001:00079380       Variants.@VarFromSingle
 0001:000793A4       Variants.@VarFromDouble
 0001:000793D0       Variants.@VarFromCurrency
 0001:000793FC       Variants.@VarFromDate
 0001:00079428       Variants.@VarFromBool
 0001:00079450       Variants.@VarFromReal
 0001:00079464       Variants.@VarFromTDateTime
 0001:00079478       Variants.@VarFromCurr
 0001:0007948C       Variants.@VarFromLStr
 0001:000794B8       Variants.@VarFromWStr
 0001:000794F0       Variants.@VarFromUStr
 0001:0007951C       Variants.@VarFromIntf
 0001:00079548       Variants.@VarFromDisp
 0001:00079574       Variants.CheckType
 0001:000795A0       Variants.VarCompareAny
 0001:00079678       Variants.EmptyCompare
 0001:0007968C       Variants.NullCompare
 0001:00079780       Variants.IntCompare
 0001:00079794       Variants.Int64Compare
 0001:000797D0       Variants.UInt64Compare
 0001:00079804       Variants.RealCompare
 0001:00079830       Variants.DateCompare
 0001:0007985C       Variants.CurrCompare
 0001:0007988C       Variants.StringCompare
 0001:000798F8       Variants.VarCompareSimple
 0001:00079AA4       Variants.VarCompareRare
 0001:00079EC8       Variants.VarCompare
 0001:00079F30       Variants.@VarAddRef
 0001:0007A1AC       Variants.VarTypeAsText
 0001:0007A360       Variants.FindVarData
 0001:0007A370       Variants.VarIsClear
 0001:0007A3E4       Variants.VarSameValue
 0001:0007A45C       Variants.SetVarAsError
 0001:0007A474       Variants.SetClearVarToEmptyParam
 0001:0007A480       Variants.GetVarDataArrayInfo
 0001:0007A4C4       Variants.VarIsArray
 0001:0007A4CC       Variants.VarIsArray
 0001:0007A51C       Variants.ClearVariantTypeList
 0001:0007A588       Variants.TCustomVariantType.BinaryOp
 0001:0007A594       Variants.TCustomVariantType.Cast
 0001:0007A5CC       Variants.TCustomVariantType.CastTo
 0001:0007A614       Variants.TCustomVariantType.Compare
 0001:0007A620       Variants.TCustomVariantType.CompareOp
 0001:0007A658       Variants.TCustomVariantType.CastToOle
 0001:0007A694       Variants.TCustomVariantType.Create
 0001:0007A6D8       Variants.TCustomVariantType.Create
 0001:0007A954       Variants.TCustomVariantType.Destroy
 0001:0007A9E0       Variants.TCustomVariantType.IsClear
 0001:0007A9E4       Variants.TCustomVariantType.LeftPromotion
 0001:0007A9F8       Variants.TCustomVariantType.OlePromotion
 0001:0007AA00       Variants.TCustomVariantType.RaiseCastError
 0001:0007AA08       Variants.TCustomVariantType.RaiseInvalidOp
 0001:0007AA10       Variants.TCustomVariantType.RaiseDispError
 0001:0007AA18       Variants.TCustomVariantType.RightPromotion
 0001:0007AA2C       Variants.TCustomVariantType.UnaryOp
 0001:0007AA34       Variants.TCustomVariantType.DispInvoke
 0001:0007AA40       Variants.TCustomVariantType._AddRef
 0001:0007AA4C       Variants.TCustomVariantType._Release
 0001:0007AA58       Variants.TCustomVariantType.QueryInterface
 0001:0007AA80       Variants.FindCustomVariantType
 0001:0007AB3C       Variants.FindCustomVariantType
 0001:0007AC10       Variants.Null
 0001:0007AC18       Variants.@VarCmpEQ
 0001:0007AC28       Variants.Finalization
 0001:0007AF18       TypInfo.GetPropName
 0001:0007AF68       TypInfo.GetTypeData
 0001:0007AF74       TypInfo.GetEnumName
 0001:0007B06C       TypInfo.UTF8SameText
 0001:0007B0E0       TypInfo.GetEnumNameValue
 0001:0007B158       TypInfo.GetEnumValue
 0001:0007B200       TypInfo.InternalGetPropInfo
 0001:0007B2B4       TypInfo.GetPropInfo
 0001:0007B308       TypInfo.GetPropInfos
 0001:0007B35C       TypInfo.IsStoredProp
 0001:0007B38C       TypInfo.GetOrdProp
 0001:0007B400       TypInfo.SetOrdProp
 0001:0007B45C       TypInfo.GetSetElementName
 0001:0007B4F0       TypInfo.GetSetElementValue
 0001:0007B5C4       TypInfo.GetShortStrProp
 0001:0007B608       TypInfo.SetShortStrProp
 0001:0007B65C       TypInfo.GetShortStrPropAsLongStr
 0001:0007B68C       TypInfo.SetShortStrPropAsLongStr
 0001:0007B6C0       TypInfo.AssignLongStr
 0001:0007B6D8       TypInfo.GetLongStrProp
 0001:0007B718       TypInfo.SetLongStrProp
 0001:0007B758       TypInfo.GetWideStrPropAsLongStr
 0001:0007B7B4       TypInfo.SetWideStrPropAsLongStr
 0001:0007B80C       TypInfo.GetUnicodeStrPropAsLongStr
 0001:0007B868       TypInfo.SetUnicodeStrPropAsLongStr
 0001:0007B8C0       TypInfo.GetAnsiStrProp
 0001:0007B90C       TypInfo.SetAnsiStrProp
 0001:0007B948       TypInfo.GetWideStrProp
 0001:0007BA5C       TypInfo.SetWideStrProp
 0001:0007BB58       TypInfo.GetUnicodeStrProp
 0001:0007BC70       TypInfo.SetRawByteStrProp
 0001:0007BDC4       TypInfo.SetUnicodeStrProp
 0001:0007BEE8       TypInfo.GetFloatProp
 0001:0007C000       TypInfo.SetFloatProp
 0001:0007C1F8       TypInfo.AssignVariant
 0001:0007C20C       TypInfo.GetVariantProp
 0001:0007C24C       TypInfo.SetVariantProp
 0001:0007C28C       TypInfo.GetMethodProp
 0001:0007C2CC       TypInfo.SetMethodProp
 0001:0007C304       TypInfo.GetInt64Prop
 0001:0007C32C       TypInfo.SetInt64Prop
 0001:0007C368       TypInfo.GetInterfaceProp
 0001:0007C3E8       TypInfo.SetInterfaceProp
 0001:0007C45C       TypInfo.Finalization
 0001:0007C534       Classes..EStreamError
 0001:0007C5D0       Classes..EFileStreamError
 0001:0007C6CC       Classes..EFCreateError
 0001:0007C768       Classes..EFOpenError
 0001:0007C800       Classes..EFilerError
 0001:0007C898       Classes..EReadError
 0001:0007C92C       Classes..EWriteError
 0001:0007C9C4       Classes..EClassNotFound
 0001:0007CA60       Classes..EInvalidImage
 0001:0007CAFC       Classes..EListError
 0001:0007CB90       Classes..EStringListError
 0001:0007CC34       Classes..EComponentError
 0001:0007CE38       Classes..TListEnumerator
 0001:0007D00C       Classes..TList
 0001:0007D720       Classes..TThreadList
 0001:0007D9D8       Classes..TPersistent
 0001:0007DB50       Classes..TCollectionItem
 0001:0007DDBC       Classes..TCollectionEnumerator
 0001:0007DF60       Classes..TCollection
 0001:0007E4B8       Classes..TStringsEnumerator
 0001:0007E660       Classes..TStrings
 0001:0007F1D8       Classes.TStrings.Clear
 0001:0007F1E0       Classes.TStrings.Delete
 0001:0007F1E8       Classes.TStrings.Insert
 0001:0007F2D8       Classes..TStringList
 0001:0007F954       Classes..TStream
 0001:0007FF50       Classes.TStream.Read
 0001:0007FF58       Classes.TStream.Write
 0001:0007FF60       Classes..THandleStream
 0001:00080178       Classes..TFileStream
 0001:0008035C       Classes..TCustomMemoryStream
 0001:000805A4       Classes..TMemoryStream
 0001:00080838       Classes..TClassFinder
 0001:00080C0C       Classes..TFiler
 0001:00080FBC       Classes.TFiler.DefineProperty
 0001:00080FC4       Classes.TFiler.DefineBinaryProperty
 0001:00080FCC       Classes.TFiler.FlushBuffer
 0001:00081624       Classes..TReader
 0001:0008252C       Classes..TWriter
 0001:00082F38       Classes..TComponentEnumerator
 0001:00083310       Classes..TComponent
 0001:00083C58       Classes..TBasicActionLink
 0001:00083E74       Classes..TBasicAction
 0001:00084280       Classes..TRegGroup
 0001:000846E0       Classes..TRegGroups
 0001:00084BBC       Classes.TRegGroup.AddClass
 0001:00084BC8       Classes.TRegGroup.BestClass
 0001:00084C28       Classes.TRegGroup.BestGroup
 0001:00084C98       Classes.TRegGroup.Create
 0001:00084CF4       Classes.TRegGroup.Destroy
 0001:00084D34       Classes.TRegGroup.GetClass
 0001:00084D84       Classes.TRegGroup.GetClasses
 0001:00084DCC       Classes.TRegGroup.IndexOfClass
 0001:00084E44       Classes.TRegGroup.InGroup
 0001:00084E88       Classes.TRegGroup.RegisterClass
 0001:00084F38       Classes.TRegGroup.RegisterClassAlias
 0001:00084F70       Classes.TRegGroup.Registered
 0001:00084F88       Classes.TRegGroup.UnregisterClass
 0001:00084FE8       Classes.TRegGroup.UnregisterModuleClasses
 0001:00085128       Classes.TRegGroups.Activate
 0001:00085174       Classes.TRegGroups.AddClass
 0001:00085194       Classes.TRegGroups.Create
 0001:00085208       Classes.TRegGroups.Destroy
 0001:00085268       Classes.TRegGroups.FindGroup
 0001:000852AC       Classes.TRegGroups.GetClass
 0001:000852F0       Classes.TRegGroups.GroupedWith
 0001:00085310       Classes.Error
 0001:00085394       Classes.TRegGroups.GroupWith
 0001:00085468       Classes.TRegGroups.Lock
 0001:00085474       Classes.TRegGroups.RegisterClass
 0001:0008548C       Classes.TRegGroups.RegisterClassAlias
 0001:000854AC       Classes.TRegGroups.Registered
 0001:000854F0       Classes.TRegGroups.StartGroup
 0001:00085540       Classes.TRegGroups.Unlock
 0001:0008554C       Classes.TRegGroups.UnregisterClass
 0001:0008557C       Classes.TRegGroups.UnregisterModuleClasses
 0001:000855CC       Classes.TClassFinder.Create
 0001:0008570C       Classes.TClassFinder.Destroy
 0001:0008573C       Classes.TClassFinder.GetClass
 0001:000857D8       Classes.TClassFinder.GetClasses
 0001:00085860       Classes.GetFieldClassTable
 0001:0008586C       Classes.ClassNotFound
 0001:000858D8       Classes.GetClass
 0001:00085944       Classes.FindClass
 0001:00085964       Classes.UnRegisterModuleClasses
 0001:000859CC       Classes.FindIntToIdent
 0001:00085A48       Classes.FindIdentToInt
 0001:00085AC4       Classes.FindGlobalComponent
 0001:00085B04       Classes.IsUniqueGlobalComponentName
 0001:00085B28       Classes.WriteCollection
 0001:00085B94       Classes.CollectionsEqual
 0001:00085CB0       Classes.TListEnumerator.Create
 0001:00085CF4       Classes.TListEnumerator.GetCurrent
 0001:00085D00       Classes.TListEnumerator.MoveNext
 0001:00085D18       Classes.TList.Destroy
 0001:00085D38       Classes.TList.Add
 0001:00085D78       Classes.TList.Clear
 0001:00085D90       Classes.TList.Delete
 0001:00085DF8       Classes.ReturnAddr
 0001:00085DFC       Classes.TList.Error
 0001:00085E34       Classes.TList.Error
 0001:00085E88       Classes.TList.Exchange
 0001:00085ED8       Classes.TList.Expand
 0001:00085EF0       Classes.TList.First
 0001:00085EF8       Classes.TList.Get
 0001:00085F1C       Classes.TList.GetEnumerator
 0001:00085F2C       Classes.TList.Grow
 0001:00085F60       Classes.TList.IndexOf
 0001:00085F84       Classes.TList.IndexOfItem
 0001:00085FB0       Classes.TList.Insert
 0001:00086028       Classes.TList.Last
 0001:0008604C       Classes.TList.Move
 0001:000860A4       Classes.TList.Put
 0001:00086100       Classes.TList.Remove
 0001:00086108       Classes.TList.RemoveItem
 0001:00086128       Classes.TList.Pack
 0001:0008619C       Classes.TList.SetCapacity
 0001:000861D8       Classes.TList.SetCount
 0001:0008627C       Classes.QuickSort
 0001:000863B4       Classes..TList.Sort$ActRec
 0001:0008646C       Classes.TList.Sort$ActRec.$0$Body
 0001:00086478       Classes.TList.Sort
 0001:000864F8       Classes.TList.SortList
 0001:00086518       Classes.TList.Extract
 0001:00086520       Classes.TList.ExtractItem
 0001:00086570       Classes.TList.Notify
 0001:00086574       Classes.TList.Assign
 0001:00086840       Classes.TThreadList.Create
 0001:00086894       Classes.TThreadList.Destroy
 0001:00086910       Classes.TThreadList.Add
 0001:00086998       Classes.TThreadList.Clear
 0001:000869E0       Classes.TThreadList.LockList
 0001:000869F4       Classes.TThreadList.Remove
 0001:000869FC       Classes.TThreadList.RemoveItem
 0001:00086A50       Classes.TThreadList.UnlockList
 0001:00086A5C       Classes.TPersistent.Destroy
 0001:00086A88       Classes.TPersistent.Assign
 0001:00086A9C       Classes.TPersistent.AssignError
 0001:00086B58       Classes.TPersistent.AssignTo
 0001:00086B60       Classes.TPersistent.DefineProperties
 0001:00086B64       Classes.TPersistent.GetNamePath
 0001:00086BFC       Classes.TPersistent.GetOwner
 0001:00086C00       Classes.GetDesigner
 0001:00086CA4       Classes.NotifyDesigner
 0001:00086D08       Classes.TCollectionItem.Create
 0001:00086D40       Classes.TCollectionItem.Destroy
 0001:00086D70       Classes.TCollectionItem.Changed
 0001:00086D94       Classes.TCollectionItem.GetIndex
 0001:00086DAC       Classes.TCollectionItem.GetDisplayName
 0001:00086DC0       Classes.TCollectionItem.GetNamePath
 0001:00086E6C       Classes.TCollectionItem.GetOwner
 0001:00086E70       Classes.TCollectionItem.SetCollection
 0001:00086E98       Classes.TCollectionItem.SetDisplayName
 0001:00086EA0       Classes.TCollectionItem.SetIndex
 0001:00086ED0       Classes.TCollectionEnumerator.Create
 0001:00086F14       Classes.TCollectionEnumerator.GetCurrent
 0001:00086F20       Classes.TCollectionEnumerator.MoveNext
 0001:00086F3C       Classes.TCollection.Create
 0001:00086F88       Classes.TCollection.Destroy
 0001:00086FD4       Classes.TCollection.Add
 0001:00086FF4       Classes.TCollection.Assign
 0001:0008709C       Classes.TCollection.BeginUpdate
 0001:000870A0       Classes.TCollection.Changed
 0001:000870B0       Classes.TCollection.Clear
 0001:00087118       Classes.TCollection.EndUpdate
 0001:00087124       Classes.TCollection.FindItemID
 0001:00087154       Classes.TCollection.GetAttrCount
 0001:00087158       Classes.TCollection.GetAttr
 0001:00087168       Classes.TCollection.GetEnumerator
 0001:00087178       Classes.TCollection.GetCapacity
 0001:00087180       Classes.TCollection.GetItemAttr
 0001:000871A0       Classes.TCollection.GetCount
 0001:000871A8       Classes.TCollection.GetItem
 0001:000871BC       Classes.TCollection.GetNamePath
 0001:00087270       Classes.TCollection.GetPropName
 0001:000873C4       Classes.TCollection.Insert
 0001:000873E0       Classes.TCollection.InsertItem
 0001:00087448       Classes.TCollection.RemoveItem
 0001:0008749C       Classes.TCollection.SetCapacity
 0001:000874AC       Classes.TCollection.SetItemName
 0001:000874B0       Classes.TCollection.Update
 0001:000874B4       Classes.TCollection.Delete
 0001:000874E4       Classes.TCollection.Owner
 0001:000874F0       Classes.TCollection.Added
 0001:000874F4       Classes.TCollection.Deleting
 0001:000874F8       Classes.TCollection.Notify
 0001:0008751C       Classes.TStringsEnumerator.Create
 0001:00087560       Classes.TStringsEnumerator.GetCurrent
 0001:00087578       Classes.TStringsEnumerator.MoveNext
 0001:00087594       Classes.TStrings.Destroy
 0001:000875C4       Classes.TStrings.Add
 0001:000875E8       Classes.TStrings.AddObject
 0001:0008760C       Classes.TStrings.Append
 0001:00087618       Classes.TStrings.AddStrings
 0001:000876D0       Classes.TStrings.Assign
 0001:0008778C       Classes.TStrings.BeginUpdate
 0001:000877A4       Classes.DoWrite
 0001:000877FC       Classes.TStrings.DefineProperties
 0001:00087854       Classes.TStrings.EndUpdate
 0001:00087868       Classes.TStrings.Equals
 0001:00087910       Classes.ReturnAddr
 0001:00087914       Classes.TStrings.Error
 0001:0008794C       Classes.TStrings.Error
 0001:000879A4       Classes.TStrings.Exchange
 0001:00087A90       Classes.TStrings.GetCapacity
 0001:00087A98       Classes.TStrings.GetCommaText
 0001:00087B30       Classes.TStrings.GetDelimitedText
 0001:00087DA0       Classes.TStrings.GetEnumerator
 0001:00087DB0       Classes.TStrings.GetObject
 0001:00087DB4       Classes.TStrings.GetText
 0001:00087E08       Classes.TStrings.GetTextStr
 0001:00087FA0       Classes.TStrings.IndexOf
 0001:0008802C       Classes.TStrings.IndexOfName
 0001:00088100       Classes.TStrings.IndexOfObject
 0001:00088134       Classes.TStrings.InsertObject
 0001:00088164       Classes.TStrings.LoadFromFile
 0001:000881B8       Classes.TStrings.LoadFromFile
 0001:00088214       Classes.TStrings.LoadFromStream
 0001:00088220       Classes.TStrings.LoadFromStream
 0001:00088314       Classes.TStrings.Move
 0001:000883C4       Classes.TStrings.Put
 0001:000883F4       Classes.TStrings.PutObject
 0001:000883F8       Classes.TStrings.ReadData
 0001:000884A8       Classes.TStrings.SaveToFile
 0001:000884B8       Classes.TStrings.SaveToFile
 0001:00088518       Classes.TStrings.SaveToStream
 0001:00088528       Classes.TStrings.SaveToStream
 0001:000885E0       Classes.TStrings.SetCapacity
 0001:000885E4       Classes.TStrings.SetCommaText
 0001:0008860C       Classes.TStrings.SetStringsAdapter
 0001:00088640       Classes.TStrings.SetText
 0001:00088690       Classes.TStrings.SetTextStr
 0001:0008883C       Classes.TStrings.SetUpdateState
 0001:00088840       Classes.TStrings.WriteData
 0001:000888C4       Classes.TStrings.SetDelimitedText
 0001:00088A74       Classes.TStrings.GetDelimiter
 0001:00088A90       Classes.TStrings.GetLineBreak
 0001:00088ACC       Classes.TStrings.GetQuoteChar
 0001:00088AE8       Classes.TStrings.GetStrictDelimiter
 0001:00088B00       Classes.TStrings.SetDelimiter
 0001:00088B20       Classes.TStrings.SetLineBreak
 0001:00088B4C       Classes.TStrings.SetQuoteChar
 0001:00088B6C       Classes.TStrings.SetStrictDelimiter
 0001:00088B88       Classes.TStrings.CompareStrings
 0001:00088B94       Classes.TStrings.GetNameValueSeparator
 0001:00088BB0       Classes.TStrings.SetNameValueSeparator
 0001:00088BD0       Classes.TStringList.Destroy
 0001:00088C54       Classes.TStringList.Add
 0001:00088C64       Classes.TStringList.AddObject
 0001:00088CC8       Classes.TStringList.Changed
 0001:00088CE4       Classes.TStringList.Changing
 0001:00088D00       Classes.TStringList.Clear
 0001:00088D68       Classes.TStringList.Delete
 0001:00088DE8       Classes.TStringList.Exchange
 0001:00088E44       Classes.TStringList.ExchangeItems
 0001:00088E68       Classes.TStringList.Find
 0001:00088EEC       Classes.TStringList.Get
 0001:00088F1C       Classes.TStringList.GetCapacity
 0001:00088F20       Classes.TStringList.GetCount
 0001:00088F24       Classes.TStringList.GetObject
 0001:00088F48       Classes.TStringList.Grow
 0001:00088F7C       Classes.TStringList.IndexOf
 0001:00088FB8       Classes.TStringList.Insert
 0001:00088FC8       Classes.TStringList.InsertObject
 0001:0008901C       Classes.TStringList.InsertItem
 0001:00089098       Classes.TStringList.Put
 0001:000890F0       Classes.TStringList.PutObject
 0001:0008912C       Classes.TStringList.QuickSort
 0001:000891C4       Classes.TStringList.SetCapacity
 0001:00089204       Classes.TStringList.SetSorted
 0001:00089224       Classes.TStringList.SetUpdateState
 0001:00089244       Classes.StringListCompareStrings
 0001:00089264       Classes.TStringList.Sort
 0001:00089274       Classes.TStringList.CustomSort
 0001:000892AC       Classes.TStringList.CompareStrings
 0001:000892C8       Classes.TStringList.Create
 0001:00089300       Classes.TStringList.Create
 0001:00089344       Classes.TStringList.SetCaseSensitive
 0001:0008936C       Classes.TStream.GetPosition
 0001:0008938C       Classes.TStream.SetPosition
 0001:000893A0       Classes.TStream.GetSize
 0001:000893EC       Classes.TStream.SetSize
 0001:000893F0       Classes.TStream.SetSize64
 0001:00089404       Classes.TStream.SetSize
 0001:00089458       Classes.RaiseException
 0001:000894CC       Classes.TStream.Seek
 0001:00089550       Classes.TStream.Seek
 0001:000895C0       Classes.TStream.ReadBuffer
 0001:000895F8       Classes.TStream.WriteBuffer
 0001:00089630       Classes.TStream.CopyFrom
 0001:00089724       Classes.TStream.ReadComponent
 0001:00089784       Classes.TStream.WriteComponent
 0001:0008978C       Classes.TStream.WriteDescendent
 0001:000897E8       Classes.TStream.ReadComponentRes
 0001:00089804       Classes.TStream.WriteComponentRes
 0001:0008980C       Classes.TStream.WriteResourceHeader
 0001:00089A98       Classes.TStream.FixupResourceHeader
 0001:00089B5C       Classes.TStream.WriteDescendentRes
 0001:00089B90       Classes.TStream.ReadResHeader
 0001:00089C7C       Classes.THandleStream.Create
 0001:00089CB8       Classes.THandleStream.Read
 0001:00089CC8       Classes.THandleStream.Write
 0001:00089CD8       Classes.THandleStream.Seek
 0001:00089D04       Classes.THandleStream.SetSize
 0001:00089D18       Classes.THandleStream.SetSize
 0001:00089D40       Classes.TFileStream.Create
 0001:00089D84       Classes.TFileStream.Create
 0001:00089EF8       Classes.TFileStream.Destroy
 0001:00089F2C       Classes.TCustomMemoryStream.SetPointer
 0001:00089F34       Classes.TCustomMemoryStream.Read
 0001:00089F6C       Classes.TCustomMemoryStream.Seek
 0001:00089F90       Classes.TCustomMemoryStream.SaveToStream
 0001:00089FA8       Classes.TCustomMemoryStream.SaveToFile
 0001:0008A000       Classes.TMemoryStream.Destroy
 0001:0008A02C       Classes.TMemoryStream.Clear
 0001:0008A044       Classes.TMemoryStream.LoadFromStream
 0001:0008A07C       Classes.TMemoryStream.LoadFromFile
 0001:0008A0D0       Classes.TMemoryStream.SetCapacity
 0001:0008A0F8       Classes.TMemoryStream.SetSize
 0001:0008A124       Classes.TMemoryStream.Realloc
 0001:0008A1A4       Classes.TMemoryStream.Write
 0001:0008A1F4       Classes.TFiler.Create
 0001:0008A23C       Classes.TFiler.Destroy
 0001:0008A264       Classes.TFiler.SetRoot
 0001:0008A268       Classes..TPropFixup
 0001:0008A494       Classes..TPropIntfFixup
 0001:0008A57C       Classes.TPropFixup.Create
 0001:0008A5D4       Classes.TPropFixup.MakeGlobalReference
 0001:0008A634       Classes.TPropFixup.ResolveReference
 0001:0008A644       Classes.TPropIntfFixup.ResolveReference
 0001:0008A6C8       Classes.FindNestedComponent
 0001:0008A7C0       Classes.AddFinished
 0001:0008A7F8       Classes.AddNotFinished
 0001:0008A840       Classes.GlobalFixupReferences
 0001:0008AA14       Classes.RemoveFixupReferences
 0001:0008AAC8       Classes.RemoveFixups
 0001:0008AB5C       Classes.ReadError
 0001:0008AB74       Classes.PropValueError
 0001:0008AB80       Classes.PropertyNotFound
 0001:0008ABAC       Classes.SetElementValue
 0001:0008ABC4       Classes.TReader.Destroy
 0001:0008AC00       Classes.TReader.BeginReferences
 0001:0008AC68       Classes.TReader.CheckValue
 0001:0008AC8C       Classes.TReader.DefineProperty
 0001:0008ACC8       Classes.TReader.DefineBinaryProperty
 0001:0008ADB0       Classes.TReader.EndOfList
 0001:0008ADC4       Classes.TReader.EndReferences
 0001:0008ADE0       Classes.TReader.Error
 0001:0008AE04       Classes.TReader.FindMethodInstance
 0001:0008AE74       Classes.TReader.FindMethod
 0001:0008AEC4       Classes.RemoveGlobalFixup
 0001:0008AF4C       Classes.TReader.DoFixupReferences
 0001:0008B090       Classes.TReader.FixupReferences
 0001:0008B0C8       Classes.TReader.FlushBuffer
 0001:0008B0EC       Classes.TReader.FreeFixups
 0001:0008B128       Classes.TReader.GetFieldClass
 0001:0008B1BC       Classes.TReader.GetPosition
 0001:0008B1D4       Classes.TReader.NextValue
 0001:0008B1E4       Classes.TReader.PropertyError
 0001:0008B1F8       Classes.TReader.Read
 0001:0008B244       Classes.TReader.ReadBuffer
 0001:0008B280       Classes.TReader.ReadBoolean
 0001:0008B294       Classes.TReader.ReadChar
 0001:0008B328       Classes.TReader.ReadWideChar
 0001:0008B388       Classes.TReader.ReadCollection
 0001:0008B464       Classes.AddSubComponentsToLoaded
 0001:0008B4A0       Classes.CheckSubComponents
 0001:0008B518       Classes.SetSubComponentState
 0001:0008B580       Classes.ComponentCreated
 0001:0008B5A0       Classes.Recover
 0001:0008B600       Classes.CreateComponent
 0001:0008B710       Classes.SetCompName
 0001:0008B7B0       Classes.FindExistingComponent
 0001:0008B854       Classes.TReader.ReadComponent
 0001:0008BA94       Classes.TReader.ReadData
 0001:0008BB04       Classes.TReader.ReadDataInner
 0001:0008BBD4       Classes.TReader.ReadFloat
 0001:0008BC0C       Classes.TReader.ReadDouble
 0001:0008BC50       Classes.TReader.ReadSingle
 0001:0008BC94       Classes.TReader.ReadCurrency
 0001:0008BCE4       Classes.TReader.ReadDate
 0001:0008BD28       Classes.TReader.ReadIdent
 0001:0008BEC0       Classes.TReader.ReadInteger
 0001:0008BF2C       Classes.TReader.ReadInt64
 0001:0008BF70       Classes.TReader.ReadListBegin
 0001:0008BF78       Classes.TReader.ReadListEnd
 0001:0008BF80       Classes.TReader.ReadPrefix
 0001:0008BFC0       Classes.HandleException
 0001:0008C090       Classes.PropPathError
 0001:0008C0AC       Classes.TReader.ReadProperty
 0001:0008C324       Classes.SetIntIdent
 0001:0008C36C       Classes.SetObjectIdent
 0001:0008C3AC       Classes.SetVariantReference
 0001:0008C408       Classes.SetInterfaceReference
 0001:0008C4C8       Classes.TReader.ReadPropValue
 0001:0008C82C       Classes.FindUniqueName
 0001:0008C894       Classes.TReader.ReadRootComponent
 0001:0008CBC8       Classes.TReader.ReadComponents
 0001:0008CCB8       Classes.TReader.ReadSet
 0001:0008CD74       Classes.TReader.ReadSignature
 0001:0008CD98       Classes.TReader.ReadStr
 0001:0008CE28       Classes.TReader.ReadString
 0001:0008CF10       Classes.TReader.ReadWideString
 0001:0008D050       Classes.TReader.ReadValue
 0001:0008D064       Classes.TReader.SetPosition
 0001:0008D084       Classes.TReader.SkipSetBody
 0001:0008D0CC       Classes.SkipList
 0001:0008D0F8       Classes.SkipBinary
 0001:0008D128       Classes.SkipCollection
 0001:0008D18C       Classes.TReader.SkipValue
 0001:0008D33C       Classes.CopySetBody
 0001:0008D3C4       Classes.CopyList
 0001:0008D410       Classes.CopyBytes
 0001:0008D4A0       Classes.CopyBinary
 0001:0008D4F8       Classes.TReader.CopyValue
 0001:0008D6E0       Classes.TReader.SkipProperty
 0001:0008D728       Classes.TReader.SkipComponent
 0001:0008D7D4       Classes.TReader.FindAncestorComponent
 0001:0008D88C       Classes.TReader.ReferenceName
 0001:0008D8A4       Classes.TReader.SetName
 0001:0008D8CC       Classes.TReader.FindComponentClass
 0001:0008D940       Classes.TReader.SkipBytes
 0001:0008D988       Classes.ReadCustomVariant
 0001:0008DB50       Classes.TReader.ReadVariant
 0001:0008DD70       Classes.TWriter.Destroy
 0001:0008DD9C       Classes.TWriter.AddAncestor
 0001:0008DDA8       Classes.TWriter.DefineProperty
 0001:0008DDD0       Classes.TWriter.DefineBinaryProperty
 0001:0008DDFC       Classes.TWriter.GetPosition
 0001:0008DE0C       Classes.TWriter.FindMethodName
 0001:0008DE54       Classes.TWriter.FlushBuffer
 0001:0008DE5C       Classes.TWriter.SetPosition
 0001:0008DE98       Classes.TWriter.SetRoot
 0001:0008DEB0       Classes.TWriter.Write
 0001:0008DEFC       Classes.TWriter.WriteBinary
 0001:0008DF84       Classes.TWriter.WriteBuffer
 0001:0008DF9C       Classes.TWriter.WriteBoolean
 0001:0008DFB0       Classes.TWriter.WriteChar
 0001:0008E000       Classes.TWriter.WriteWideChar
 0001:0008E050       Classes.TWriter.WriteCollection
 0001:0008E0F0       Classes.FindAncestor
 0001:0008E140       Classes.TWriter.WriteComponent
 0001:0008E294       Classes.TWriter.WriteData
 0001:0008E654       Classes.TWriter.WriteDescendent
 0001:0008E67C       Classes.TWriter.WriteFloat
 0001:0008E6A0       Classes.TWriter.WriteSingle
 0001:0008E6C4       Classes.TWriter.WriteDouble
 0001:0008E6E8       Classes.TWriter.WriteCurrency
 0001:0008E70C       Classes.TWriter.WriteDate
 0001:0008E730       Classes.TWriter.WriteIdent
 0001:0008E814       Classes.TWriter.WriteInteger
 0001:0008E888       Classes.TWriter.WriteInteger
 0001:0008E8E0       Classes.TWriter.WriteListBegin
 0001:0008E8E8       Classes.TWriter.WriteListEnd
 0001:0008E8F0       Classes.TWriter.WritePrefix
 0001:0008E938       Classes.TWriter.WriteProperties
 0001:0008EA00       Classes.AncestorIsValid
 0001:0008EA18       Classes.IsDefaultOrdProp
 0001:0008EA70       Classes.IsDefaultFloatProp
 0001:0008EACC       Classes.IsDefaultInt64Prop
 0001:0008EB24       Classes.IsDefaultStrProp
 0001:0008EBB4       Classes.ObjectAncestorMatch
 0001:0008EBF4       Classes.IsDefault
 0001:0008EC4C       Classes.IsDefaultObjectProp
 0001:0008ECCC       Classes.IsDefaultValue
 0001:0008ED98       Classes.IsDefaultInterfaceProp
 0001:0008EE74       Classes.FindMethodName
 0001:0008EECC       Classes.IsDefaultMethodProp
 0001:0008EF6C       Classes.IsDefaultVariantProp
 0001:0008F004       Classes.IsDefaultPropertyValue
 0001:0008F168       Classes.WritePropPath
 0001:0008F1C0       Classes.WriteSet
 0001:0008F254       Classes.WriteIntProp
 0001:0008F2C0       Classes.WriteCollectionProp
 0001:0008F364       Classes.WriteOrdProp
 0001:0008F45C       Classes.WriteFloatProp
 0001:0008F49C       Classes.WriteInt64Prop
 0001:0008F4D8       Classes.WriteStrProp
 0001:0008F550       Classes.OwnedBy
 0001:0008F568       Classes.GetComponentValue
 0001:0008F6AC       Classes.WriteObjectProp
 0001:0008F8C0       Classes.WriteInterfaceProp
 0001:0008F99C       Classes.WriteMethodProp
 0001:0008FA2C       Classes.WriteVariantProp
 0001:0008FA90       Classes.TWriter.WriteProperty
 0001:0008FBE4       Classes.TWriter.WriteVariant
 0001:0008FFC4       Classes.TWriter.WritePropName
 0001:00090018       Classes.TWriter.WriteRootComponent
 0001:00090020       Classes.TWriter.WriteSignature
 0001:00090030       Classes.TWriter.WriteStr
 0001:000900EC       Classes.TWriter.WriteMinStr
 0001:00090220       Classes.TWriter.WriteString
 0001:00090338       Classes.TWriter.WriteUTF8Str
 0001:0009040C       Classes.TWriter.WriteWideString
 0001:00090414       Classes.TWriter.WriteValue
 0001:00090428       Classes.TWriter.GetLookupInfo
 0001:0009044C       Classes.TComponentEnumerator.Create
 0001:00090490       Classes.TComponentEnumerator.GetCurrent
 0001:0009049C       Classes.TComponentEnumerator.MoveNext
 0001:000904B8       Classes.TComponent.Create
 0001:00090504       Classes.TComponent.Destroy
 0001:0009054C       Classes.TComponent.BeforeDestruction
 0001:00090558       Classes.TComponent.RemoveFreeNotifications
 0001:00090598       Classes.TComponent.FreeNotification
 0001:000905EC       Classes.TComponent.ReadLeft
 0001:00090600       Classes.TComponent.ReadTop
 0001:00090614       Classes.TComponent.WriteLeft
 0001:00090620       Classes.TComponent.WriteTop
 0001:0009062C       Classes.TComponent.Insert
 0001:00090668       Classes.TComponent.Remove
 0001:000906E0       Classes.TComponent.InsertComponent
 0001:00090744       Classes.TComponent.RemoveComponent
 0001:0009077C       Classes.TComponent.DestroyComponents
 0001:000907E8       Classes.TComponent.Destroying
 0001:00090824       Classes.TComponent.RemoveNotification
 0001:0009087C       Classes.TComponent.RemoveFreeNotification
 0001:00090898       Classes.TComponent.Notification
 0001:000908F8       Classes.TComponent.DefineProperties
 0001:00090990       Classes.TComponent.HasParent
 0001:00090994       Classes.TComponent.GetChildren
 0001:0009099C       Classes.TComponent.GetChildOwner
 0001:000909A0       Classes.TComponent.GetChildParent
 0001:000909A4       Classes.TComponent.GetEnumerator
 0001:000909B4       Classes.TComponent.GetNamePath
 0001:000909C8       Classes.TComponent.GetOwner
 0001:000909CC       Classes.TComponent.SetChildOrder
 0001:000909D0       Classes.TComponent.GetParentComponent
 0001:000909D4       Classes.TComponent.SetParentComponent
 0001:000909D8       Classes.TComponent.Updating
 0001:000909E4       Classes.TComponent.Updated
 0001:000909F0       Classes.TComponent.Loaded
 0001:000909FC       Classes.TComponent.PaletteCreated
 0001:00090A00       Classes.TComponent.ReadState
 0001:00090A08       Classes.TComponent.WriteState
 0001:00090A10       Classes.TComponent.ValidateRename
 0001:00090A98       Classes.TComponent.ValidateContainer
 0001:00090AAC       Classes.TComponent.ValidateInsert
 0001:00090B08       Classes..TComponent.FindComponent$ActRec
 0001:00090BC0       Classes.TComponent.FindComponent$ActRec.$0$Body
 0001:00090BCC       Classes.TComponent.FindComponent
 0001:00090CB8       Classes.TComponent.FindSortedComponent
 0001:00090D30       Classes.TComponent.AddSortedComponent
 0001:00090D54       Classes.TComponent.SetName
 0001:00090DE4       Classes.TComponent.ChangeName
 0001:00090E1C       Classes.TComponent.GetComponentIndex
 0001:00090E38       Classes.TComponent.GetComponent
 0001:00090E64       Classes.TComponent.GetComponentCount
 0001:00090E74       Classes.TComponent.SetComponentIndex
 0001:00090EC8       Classes.TComponent.SetDesigning
 0001:00090F18       Classes.TComponent.SetReference
 0001:00090F40       Classes.TComponent.ExecuteAction
 0001:00090F68       Classes.TComponent.UpdateAction
 0001:00090F90       Classes.TComponent.SetSubComponent
 0001:00090FA4       Classes.TComponent.GetComObject
 0001:0009105C       Classes.TComponent.SafeCallException
 0001:00091074       Classes.TComponent.FreeOnRelease
 0001:00091084       Classes.TComponent.UpdateRegistry
 0001:0009108C       Classes.TComponent.QueryInterface
 0001:000910CC       Classes.TComponent._AddRef
 0001:000910EC       Classes.TComponent._Release
 0001:0009110C       Classes.TComponent.IntfGetComponent
 0001:00091110       Classes.TComponent.IsImplementorOf
 0001:00091190       Classes.TComponent.ReferenceInterface
 0001:00091238       Classes.TBasicActionLink.Create
 0001:0009127C       Classes.TBasicActionLink.AssignClient
 0001:00091280       Classes.TBasicActionLink.Destroy
 0001:000912B4       Classes.TBasicActionLink.Change
 0001:000912CC       Classes.TBasicActionLink.Execute
 0001:000912E8       Classes.TBasicActionLink.SetAction
 0001:00091314       Classes.TBasicActionLink.IsOnExecuteLinked
 0001:00091318       Classes.TBasicActionLink.SetOnExecute
 0001:00091320       Classes.TBasicActionLink.Update
 0001:0009132C       Classes.TBasicAction.Create
 0001:00091370       Classes.TBasicAction.Destroy
 0001:000913D8       Classes.TBasicAction.HandlesTarget
 0001:000913DC       Classes.TBasicAction.ExecuteTarget
 0001:000913E0       Classes.TBasicAction.Notification
 0001:00091408       Classes.TBasicAction.UpdateTarget
 0001:0009140C       Classes.TBasicAction.Execute
 0001:00091428       Classes.TBasicAction.Update
 0001:00091444       Classes.TBasicAction.SetOnExecute
 0001:000914A0       Classes.TBasicAction.Change
 0001:000914B4       Classes.TBasicAction.RegisterChanges
 0001:000914C0       Classes.TBasicAction.UnRegisterChanges
 0001:00091500       Classes.TBasicAction.SetActionComponent
 0001:0009152C       Classes.FreeIntConstList
 0001:000915A4       Classes.ModuleUnload
 0001:000915AC       Classes.CleanupInstFreeList
 0001:000915E8       Classes.GetFreeInstBlockItemCount
 0001:00091618       Classes.ReleaseObjectInstanceBlocks
 0001:0009167C       Classes.EFileStreamError.Create
 0001:0009172C       Classes.Finalization
 0001:000917FC       CodeHookIntf.Error
 0001:0009181C       CodeHookIntf.InitCodeHookDLL
 0001:000919D8       CodeHookIntf.GetCodeHook
 0001:00091A04       CodeHookTest..TObjTarget
 0001:00091AE8       CodeHookTest..TObjHook
 0001:00091BCC       CodeHookTest.MsgBox
 0001:00091C00       CodeHookTest.DoTest
 0001:00091CF0       CodeHookTest.TObjTarget.TestTarget
 0001:00091D84       CodeHookTest.TObjHook.TestHook
 0001:00091EC0       CodeHookTest.InitWithDll
 0001:00091F28       CodeHookTest.Finalization
 0002:00000000       System.System
 0002:000000AC       Windows.Windows
 0002:000000C4       madStrings.madStrings
 0002:000000CC       madTools.madTools
 0002:000000FC       madDisAsm.madDisAsm
 0002:00000104       madMapFile.madMapFile
 0002:0000014C       madStackTrace.madStackTrace
 0002:00000154       madExcept.madExcept
 0002:000001A4       madLinkDisAsm.madLinkDisAsm
 0002:000001BC       madListHardware.madListHardware
 0002:0000021C       madListProcesses.madListProcesses
 0002:0000027C       madListModules.madListModules
 0002:000002D4       SysUtils.TEncoding.Create@
 0002:000002DC       SysUtils.Exception.Create@
 0002:000002EC       SysUtils.SysUtils
 0002:00000388       VarUtils.VarUtils
 0002:00000398       Variants.Variants
 0002:00000444       TypInfo.TypInfo
 0002:0000044C       Classes.Classes
 0002:000004DC       CodeHookTest.CodeHookTest
 0003:00000000       System.ExitCode
 0003:00000004       System.ErrorAddr
 0003:00000008       System.FileMode
 0003:0000000C       System.VarClearProc
 0003:00000010       System.VarAddRefProc
 0003:00000014       System.VarCopyProc
 0003:00000018       System.VarToLStrProc
 0003:0000001C       System.VarToWStrProc
 0003:00000020       System.Default8087CW
 0003:00000024       System.HeapAllocFlags
 0003:00000028       System.DebugHook
 0003:0000002C       System.JITEnable
 0003:00000030       System.NoErrMsg
 0003:00000034       System.DefaultTextLineBreakStyle
 0003:00000038       System.SystemThreadFuncProc
 0003:0000003C       System.LibModuleList
 0003:00000040       System.ModuleUnloadList
 0003:00000044       System.ObjCastGUID
 0003:00000054       System.Copyright
 0003:00000058       System.LeakMessageHeader
 0003:0000005C       System.SmallLeakDetail
 0003:00000060       System.LargeLeakDetail
 0003:00000064       System.BytesMessage
 0003:00000068       System.UnknownClassNameMsg
 0003:0000006C       System.AnsiStringBlockMessage
 0003:00000070       System.UnicodeStringBlockMessage
 0003:00000074       System.LeakMessageFooter
 0003:00000078       System.LeakMessageTitle
 0003:0000007C       System.SmallBlockTypes
 0003:0000075C       System.MemoryManager
 0003:00000774       System.reMap
 0003:00000790       System.errCaption
 0003:00000798       System.runErrMsg
 0003:000007B8       System.dig
 0003:000007BC       System.EmptyStringW
 0003:000007CC       System.LocaleTable
 0003:000009D4       System...
 0003:000009D8       System.@__pfnDliFailureHook
 0003:000009DC       System.@__pfnDliNotifyHook
 0003:000009E0       SysInit.TlsIndex
 0003:000009E4       SysInit.PtrToNil
 0003:000009E8       SysInit.Module
 0003:00000A04       Windows.Win32MajorVersion
 0003:00000A08       Windows.Win32MinorVersion
 0003:00000A0C       Windows.Win32Platform
 0003:00000A10       madStrings.CNtDll
 0003:00000A14       madStrings.lowCharTable
 0003:00000B14       madStrings.valTable
 0003:00000C14       madStrings.FDecSep
 0003:00000C18       madStrings.CNetMsg
 0003:00000C1C       madStrings.CRtlNtStatusToDosError
 0003:00000C20       madStrings.CWinErrNr
 0003:00000C24       madZip.StaticLiteralTree
 0003:000010A4       madZip.StaticDescriptorTree
 0003:0000111C       madZip.DistanceCode
 0003:0000131C       madZip.LengthCode
 0003:0000141C       madZip.BaseLength
 0003:00001490       madZip.BaseDistance
 0003:00001508       madZip.ExtraLengthBits
 0003:0000157C       madZip.ExtraDistanceBits
 0003:000015F4       madZip.ExtraBitLengthBits
 0003:00001640       madZip.BitLengthOrder
 0003:00001654       madZip.StaticLiteralDescriptor
 0003:00001668       madZip.StaticDistanceDescriptor
 0003:0000167C       madZip.StaticBitLengthDescriptor
 0003:00001690       madZip.FixedBuild
 0003:00001694       madZip.CopyLengths
 0003:00001710       madZip.CopyLiteralExtra
 0003:0000178C       madZip.CopyOffsets
 0003:00001804       madZip.CopyExtra
 0003:0000187C       madZip.InflateMask
 0003:000018C0       madZip.BitOrder
 0003:000018E8       madZip.crc32Tab
 0003:00001CE8       madTools.COsDescr
 0003:00001D2C       madTools.CheckProcAddress
 0003:00001D30       madTools.NeedModuleFileMapEx
 0003:00001D34       madTools.osReady
 0003:00001D38       madTools.LoadLibrary16
 0003:00001D3C       madTools.FreeLibrary16
 0003:00001D40       madTools.GetProcAddress16
 0003:00001D44       madTools.MsgHandlerMutex
 0003:00001D48       madTools.CMadToolsMsgHandlerWindow
 0003:00001D4C       madCrypt.CPArr
 0003:00001D94       madCrypt.CSArr
 0003:00002D94       madCrypt.b64
 0003:00002DD4       madDisAsm.CErrorStr_InvalidCode
 0003:00002DD8       madDisAsm.GetProcNameFromMapFile
 0003:00002DDC       madDisAsm.GetLineNumber
 0003:00002DE0       madDisAsm.BcbInitExceptBlockLDTC
 0003:00002DE4       madDisAsm.CKernel32
 0003:00002DE8       madDisAsm.CKernelbase
 0003:00002DEC       madDisAsm.CReadProcessMemory
 0003:00002DF0       madDisAsm.CWriteProcessMemory
 0003:00002DF4       madDisAsm.COpcodeFlags
 0003:00002FF4       madDisAsm.COpcodeFlags0f
 0003:000031F4       madDisAsm.COpcodeFlagsEx
 0003:00003348       madDisAsm.CRegLabels
 0003:000033C8       madDisAsm.Ccc
 0003:000033CC       madDisAsm.COpcodeLabels
 0003:000033D0       madDisAsm.C3dNowLabels
 0003:000033D4       madDisAsm.COpcodeLabelIndex
 0003:000034D4       madDisAsm.COpcodeLabelIndex0f
 0003:000035D4       madDisAsm.kernel32handle_
 0003:000035D8       madDisAsm.kernelbasehandle_
 0003:000035DC       madDisAsm.FMagic
 0003:000035E0       madDisAsm.FMagic95
 0003:000035E4       madDisAsm.FMagicReady
 0003:000035E8       madDisAsm.ReadProcessMemory
 0003:000035EC       madMapFile.CMapFileStreamDescriptor
 0003:000035F0       madNVAssistant.OnAssistantCreate
 0003:000035F4       madNVAssistant.HandleContactFormProc
 0003:000035F8       madNVAssistant.HandleScreenshotFormProc
 0003:000035FC       madStackTrace.DispatchMessageA
 0003:00003600       madExcept.CMadExceptVersionString
 0003:00003604       madExcept.OnExceptBoxCreate
 0003:00003608       madExcept.OnExceptBoxDestroy
 0003:0000360C       madExcept.ProcessMainThreadId
 0003:00003610       madExcept.AddCmdLineToBugRep
 0003:00003614       madExcept.DetectConsole
 0003:00003618       madExcept.CloseAppExitCode
 0003:0000361C       madExcept.ResetFpuMode
 0003:00003620       madExcept.DumbStackTrace
 0003:00003624       madExcept.HttpUploadTimeout
 0003:00003628       madExcept.DontUseProxy
 0003:0000362C       madExcept.ProxyServer
 0003:00003630       madExcept.NoOnlineCheck
 0003:00003634       madExcept.ForceUtf8
 0003:00003638       madExcept.HiddenAutoMailing
 0003:0000363C       madExcept.DontReformatExcMsg
 0003:00003640       madExcept.SmtpMailFrom
 0003:00003644       madExcept.ShowBugReportKey
 0003:00003648       madExcept.CalibrateData
 0003:0000364C       madExcept.AmHttpServer
 0003:00003650       madExcept.BugReportHtml
 0003:00003654       madExcept.DisAsmFunc
 0003:00003658       madExcept.Forms_TApplication_HandleException
 0003:0000365C       madExcept.Forms_TApplication_ShowException
 0003:00003660       madExcept.Qforms_TApplication_HandleException
 0003:00003664       madExcept.Qforms_TApplication_ShowException
 0003:00003668       madExcept.SysUtils_ShowException
 0003:0000366C       madExcept.SysUtils_LoadPackage
 0003:00003670       madExcept.SysUtils_InitializePackage
 0003:00003674       madExcept.Classes_CheckSynchronize
 0003:00003678       madExcept.CGIApp_TCGIApplication_CGIHandleException
 0003:0000367C       madExcept.ISAPIApp_TISAPIApplication_ISAPIHandleException
 0003:00003680       madExcept.HttpExtensionProcNext
 0003:00003684       madExcept.System_InitUnits
 0003:00003688       madExcept.System_FinalizeUnits
 0003:0000368C       madExcept.System_ExceptionHandler
 0003:00003690       madExcept.System_runErrMsg
 0003:00003694       madExcept.BcbExceptionHandler
 0003:00003698       madExcept.BcbThrowExceptionLDTC
 0003:0000369C       madExcept.BcbInitExceptBlockLDTC
 0003:000036A0       madExcept.BcbOrgMalloc
 0003:000036A4       madExcept.BcbMemcpy
 0003:000036A8       madExcept.BcbCallTerminate
 0003:000036AC       madExcept.BcbPTerminate
 0003:000036B0       madExcept.AmMeBpl
 0003:000036B4       madExcept.HandlerSection
 0003:000036B8       madExcept.madExceptBuf
 0003:000036BC       madExcept.OpenThreadProc
 0003:000036C0       madExcept.NtOpenThreadProc
 0003:000036C4       madExcept.CNtObjAttr
 0003:000036DC       madExcept.CsVersion
 0003:000036E0       madExcept.System_FpuInit
 0003:000036E4       madExcept.Last10Exceptions
 0003:00003734       madExcept.CBcbXorCheck
 0003:00003738       madExcept.BcbExceptTlsOffset
 0003:0000373C       madExcept.BcbGetTls
 0003:00003740       madExcept.CMEProperties
 0003:00003DE0       madExcept.CDfmHeader
 0003:00003DE4       madExcept.meSettingsBuf
 0003:00003DE8       madExcept.mySettings
 0003:00003DEC       madExcept.AmInTraceProcess
 0003:00003DF0       madExcept.FireHandlersWnd
 0003:00003DF4       madExcept.FireHandlersMsg
 0003:00003DF8       madExcept.AmSyncingHandlers
 0003:00003DFC       madExcept.SuspendSection
 0003:00003E00       madExcept.MainThreadSE
 0003:00003E04       madExcept.OtherThreadsSE
 0003:00003E08       madExcept.AntiFreezeTid
 0003:00003E0C       madExcept.AntiFreezeTh
 0003:00003E10       madExcept.AntiFreezeWnd
 0003:00003E14       madExcept.AntiFreezeMsg
 0003:00003E18       madExcept.AntiFreezeCnt
 0003:00003E1C       madExcept.AntiFreezePause
 0003:00003E20       madExcept.AntiFreezeEvent
 0003:00003E24       madExcept.FreezeTimeout
 0003:00003E28       madExcept.CValidChars
 0003:00003E48       madExcept.PingCount
 0003:00003E4C       madExcept.CEncodeMailto
 0003:00003E6C       madExcept.CEncodeSmtp
 0003:00003E8C       madExcept.CBoundary
 0003:00003E90       madExcept.CMonths
 0003:00003EC0       madExcept.CRes
 0003:00003EE4       madExcept.HandleExceptionTid
 0003:00003EE8       madExcept.HandleExceptionTh
 0003:00003EEC       madExcept.HandleExceptionRP
 0003:00003EF0       madExcept.HandleExceptionWP
 0003:00003EF4       madExcept.CAdminSia
 0003:00003EFC       madExcept.MadExceptPause
 0003:00003F00       madExcept.exceptionNumber
 0003:00003F08       madExcept.PExceptObjProc
 0003:00003F0C       madExcept.PMyExceptObjProc1
 0003:00003F10       madExcept.PMyExceptObjProc2
 0003:00003F14       madExcept.PMyRaiseExceptProc
 0003:00003F18       madExcept.IRSection
 0003:00003F1C       madExcept.IRCount
 0003:00003F20       madExcept.Armadillo
 0003:00003F24       madExcept.NextCreateThread
 0003:00003F28       madExcept.NextQueueUserWorkItem
 0003:00003F2C       madExcept.ThreadsHooked
 0003:00003F30       madExcept.NextGetMessageA
 0003:00003F34       madExcept.NextPeekMessageA
 0003:00003F38       madExcept.NextGetMessageW
 0003:00003F3C       madExcept.NextPeekMessageW
 0003:00003F40       madExcept.OldExceptionFilter
 0003:00003F44       madListProcesses.Process32First
 0003:00003F48       madListProcesses.Process32Next
 0003:00003F4C       madListProcesses.CreateToolhelp32Snapshot
 0003:00003F50       madListProcesses.NtQuerySystemInformation
 0003:00003F54       madListProcesses.GetModuleFileNameEx
 0003:00003F58       madListProcesses.GetGuiResources
 0003:00003F5C       Character.Latin1Categories
 0003:0000405C       SysUtils.EmptyStr
 0003:00004060       SysUtils.EmptyWideStr
 0003:00004064       SysUtils.EmptyAnsiStr
 0003:00004068       SysUtils.Win32Platform
 0003:0000406C       SysUtils.Win32MajorVersion
 0003:00004070       SysUtils.Win32MinorVersion
 0003:00004074       SysUtils.Win32BuildNumber
 0003:00004078       SysUtils.Win32CSDVersion
 0003:0000407C       SysUtils.TwoDigitYearCenturyWindow
 0003:00004080       SysUtils.MonthDays
 0003:000040B0       SysUtils.LeadBytes
 0003:000040D0       SysUtils.HexDisplayPrefix
 0003:000040D4       SysUtils.GetDiskFreeSpaceEx
 0003:000040D8       SysUtils.cSimpleBoolStrs
 0003:000040E0       SysUtils.AccessMode
 0003:000040EC       SysUtils.ShareMode
 0003:00004100       SysUtils.ShareMode
 0003:00004114       SysUtils.FormatErrorStrs
 0003:0000411C       SysUtils.FCon1E18
 0003:00004128       SysUtils.DCon10
 0003:0000412C       SysUtils.CWNear
 0003:00004130       SysUtils.FMSecsPerDay
 0003:00004134       SysUtils.IMSecsPerDay
 0003:00004138       SysUtils.Format
 0003:00004140       SysUtils.DefShortMonthNames
 0003:00004170       SysUtils.DefLongMonthNames
 0003:000041A0       SysUtils.DefShortDayNames
 0003:000041BC       SysUtils.DefLongDayNames
 0003:000041D8       SysUtils.ErrorMap
 0003:00004210       SysUtils.ExceptTypes
 0003:0000425C       SysUtils.ExceptMap
 0003:0000431C       SysUtils.MonitorSupport
 0003:00004330       SysUtils.TerminateProcList
 0003:00004334       SysUtils.DefaultFallbackLanguages
 0003:00004338       VarUtils.CResult
 0003:00004340       Variants.NullEqualityRule
 0003:00004344       Variants.NullMagnitudeRule
 0003:00004348       Variants.NullStrictConvert
 0003:0000434C       Variants.NullAsStringValue
 0003:00004350       Variants.PackVarCreation
 0003:00004354       Variants.BooleanToStringRule
 0003:00004358       Variants.BaseTypeMap
 0003:00004370       Variants.CInvalidCustomVariantType
 0003:00004374       Variants.CRangeToType
 0003:00004388       Variants.CBooleanToRelationship
 0003:00004394       Variants.CmpTypeMap
 0003:00004424       Variants.CText
 0003:0000447C       Variants.LNextVarType
 0003:00004480       Variants.CRelationshipToBoolean
 0003:00004494       TypInfo.BooleanIdents
 0003:0000449C       TypInfo.DotSep
 0003:000044A0       Classes.CreateVCLComObjectProc
 0003:000044A4       Classes.FilerSignature
 0003:000044A8       Classes.Dummy32bitResHeader
 0003:000044C8       Classes.NilMethod
 0003:000044D0       CodeHookIntf.DllInited
 0003:000044D4       CodeHookIntf.AddrGetCodeHook
 0004:00000000       System.DispCallByIDProc
 0004:00000004       System.ExceptProc
 0004:00000008       System.ErrorProc
 0004:0000000C       System.ExceptClsProc
 0004:00000010       System.ExceptObjProc
 0004:00000014       System.RaiseExceptionProc
 0004:00000018       System.RTLUnwindProc
 0004:0000001C       System.RaiseExceptObjProc
 0004:00000020       System.ExceptionAcquired
 0004:00000024       System.ExceptionClass
 0004:00000028       System.AssertErrorProc
 0004:0000002C       System.ExitProcessProc
 0004:00000030       System.AbstractErrorProc
 0004:00000034       System.MainInstance
 0004:00000038       System.MainThreadID
 0004:0000003C       System.IsLibrary
 0004:00000040       System.CmdShow
 0004:00000044       System.CmdLine
 0004:00000048       System.ExitProc
 0004:0000004C       System.IsConsole
 0004:0000004D       System.IsMultiThread
 0004:0000004E       System.Test8086
 0004:00000050       System.CPUCount
 0004:00000054       System.Input
 0004:00000324       System.Output
 0004:000005F4       System.ErrOutput
 0004:000008C4       System.MonitorSupport
 0004:000008C8       System.DefaultSystemCodePage
 0004:000008CC       System.DefaultUnicodeCodePage
 0004:000008D0       System.UTF8CompareLocale
 0004:000008D4       System.ReportMemoryLeaksOnShutdown
 0004:000008D5       System.NeverSleepOnMMThreadContention
 0004:000008D8       System..8
 0004:000008DC       System.AllocSize2SmallBlockTypeIndX4
 0004:00000A22       System.MinimumBlockAlignment
 0004:00000A24       System.MediumBlockPoolsCircularList
 0004:00000A34       System.MediumBlocksLocked
 0004:00000A38       System.LastSequentiallyFedMediumBlock
 0004:00000A3C       System.MediumSequentialFeedBytesLeft
 0004:00000A40       System.MediumBlockBinGroupBitmap
 0004:00000A44       System.MediumBlockBinBitmaps
 0004:00000AC4       System.MediumBlockBins
 0004:00002AC4       System.LargeBlocksLocked
 0004:00002AC8       System.LargeBlocksCircularList
 0004:00002AD8       System.ExpectedMemoryLeaks
 0004:00002ADC       System.ExpectedMemoryLeaksListLocked
 0004:00002AE0       System.MappingObjectHandle
 0004:00002AE4       System.InitContext
 0004:00002B14       System.DLLThreadContext
 0004:00002B44       System.GetThreadPreferredUILanguages
 0004:00002B48       System.GetThreadUILanguage
 0004:00002B4C       System.SetThreadUILanguage
 0004:00002B50       System.UseThreadUILanguageAPI
 0004:00002B54       System.CrSec
 0004:00002B6C       System.CachedLangID
 0004:00002B70       System.CachedLanguageNames
 0004:00002C1C       System...
 0004:00002C34       SysInit.ModuleIsLib
 0004:00002C35       SysInit.ModuleIsCpp
 0004:00002C38       SysInit.HInstance
 0004:00002C3C       SysInit.tlsBuffer
 0004:00002C40       Windows..2
 0004:00002C44       Windows.HtmlHelpModule
 0004:00002C48       madStrings..1
 0004:00002C4C       madZip.FixedTablesMemory
 0004:00003D4C       madZip.FixedLiteralBits
 0004:00003D50       madZip.FixedDistanceBits
 0004:00003D54       madZip.FixedLiteralTable
 0004:00003D58       madZip.FixedDistanceTable
 0004:00003D5C       madTools..1
 0004:00003D60       madTools.os_
 0004:00003D80       madTools.MsgHandlerWindows
 0004:00003D84       madDisAsm..1
 0004:00003D88       madMapFile..2
 0004:00003D8C       madMapFile.MapFileCache
 0004:00003D90       madStackTrace..2
 0004:00003D94       madStackTrace.moduleCount
 0004:00003D98       madStackTrace.moduleCache
 0004:00003D9C       madStackTrace.functionCount
 0004:00003DA0       madStackTrace.functionCache
 0004:00003DA4       madExcept.Plugins
 0004:00003DA8       madExcept..3
 0004:00003DAC       madExcept.StartTime
 0004:00003DB4       madExcept.ExceptHandlers
 0004:00003DB8       madExcept.ExceptHandlersOO
 0004:00003DBC       madExcept.ActionHandlers
 0004:00003DC0       madExcept.ActionHandlersOO
 0004:00003DC4       madExcept.HiddenHandlers
 0004:00003DC8       madExcept.HiddenHandlersOO
 0004:00003DCC       madExcept.BcbMallocNext
 0004:00003DD0       madExcept.BcbGetExceptionObjectNext
 0004:00003DD4       madExcept.BcbRaiseExceptionNext
 0004:00003DD8       madExcept.BcbInitCatchArgPascalNext
 0004:00003DDC       madExcept.SuspendThreadIds
 0004:00003DE0       madExcept.OutOfMemoryInsurance
 0004:00003E00       madExcept.PatchList
 0004:00003E04       madExcept.IRList
 0004:00003E08       madLinkDisAsm..1
 0004:00003E0C       madListHardware..1
 0004:00003E10       madListProcesses..1
 0004:00003E14       madListModules..1
 0004:00003E18       Character.DataTable
 0004:00003E1C       Character.CatIndexPrimary
 0004:00003E20       Character.CatIndexSecondary
 0004:00003E24       Character.CategoryTable
 0004:00003E28       Character.NumIndexPrimary
 0004:00003E2C       Character.NumIndexSecondary
 0004:00003E30       Character.NumericValueTable
 0004:00003E34       SysUtils.Exception.$ClassInitFlag
 0004:00003E38       SysUtils.Exception.GetExceptionStackInfoProc
 0004:00003E3C       SysUtils.Exception.GetStackInfoStringProc
 0004:00003E40       SysUtils.Exception.CleanUpStackInfoProc
 0004:00003E44       SysUtils.CurrencyString
 0004:00003E48       SysUtils.CurrencyFormat
 0004:00003E49       SysUtils.NegCurrFormat
 0004:00003E4A       SysUtils.ThousandSeparator
 0004:00003E4C       SysUtils.DecimalSeparator
 0004:00003E4E       SysUtils.CurrencyDecimals
 0004:00003E50       SysUtils.DateSeparator
 0004:00003E54       SysUtils.ShortDateFormat
 0004:00003E58       SysUtils.LongDateFormat
 0004:00003E5C       SysUtils.TimeSeparator
 0004:00003E60       SysUtils.TimeAMString
 0004:00003E64       SysUtils.TimePMString
 0004:00003E68       SysUtils.ShortTimeFormat
 0004:00003E6C       SysUtils.LongTimeFormat
 0004:00003E70       SysUtils.ShortMonthNames
 0004:00003EA0       SysUtils.LongMonthNames
 0004:00003ED0       SysUtils.ShortDayNames
 0004:00003EEC       SysUtils.LongDayNames
 0004:00003F08       SysUtils.SysLocale
 0004:00003F16       SysUtils.ListSeparator
 0004:00003F18       SysUtils.EraNames
 0004:00003F34       SysUtils.EraYearOffsets
 0004:00003F50       SysUtils.TrueBoolStrs
 0004:00003F54       SysUtils.FalseBoolStrs
 0004:00003F58       SysUtils.TEncoding.FASCIIEncoding
 0004:00003F5C       SysUtils.TEncoding.FBigEndianUnicodeEncoding
 0004:00003F60       SysUtils.TEncoding.FDefaultEncoding
 0004:00003F64       SysUtils.TEncoding.FUnicodeEncoding
 0004:00003F68       SysUtils.TEncoding.FUTF7Encoding
 0004:00003F6C       SysUtils.TEncoding.FUTF8Encoding
 0004:00003F70       SysUtils.TEncoding.$ClassInitFlag
 0004:00003F74       SysUtils..76
 0004:00003F78       SysUtils.OutOfMemory
 0004:00003F7C       SysUtils.InvalidPointer
 0004:00003F80       SysUtils.SyncEventCache
 0004:00004080       SysUtils.EventCache
 0004:00004084       SysUtils.EventItemHolders
 0004:00004088       SysUtils.ValidatedUnitHashBuckets
 0004:0000507C       SysUtils.UnitHashBuckets
 0004:00006070       SysUtils.LanguageArray
 0004:00006074       VarUtils.VariantChangeTypeEx
 0004:00006078       VarUtils.VarNeg
 0004:0000607C       VarUtils.VarNot
 0004:00006080       VarUtils.VarAdd
 0004:00006084       VarUtils.VarSub
 0004:00006088       VarUtils.VarMul
 0004:0000608C       VarUtils.VarDiv
 0004:00006090       VarUtils.VarIDiv
 0004:00006094       VarUtils.VarMod
 0004:00006098       VarUtils.VarAnd
 0004:0000609C       VarUtils.VarOr
 0004:000060A0       VarUtils.VarXor
 0004:000060A4       VarUtils.VarCmp
 0004:000060A8       VarUtils.VarI4FromStr
 0004:000060AC       VarUtils.VarR4FromStr
 0004:000060B0       VarUtils.VarR8FromStr
 0004:000060B4       VarUtils.VarDateFromStr
 0004:000060B8       VarUtils.VarCyFromStr
 0004:000060BC       VarUtils.VarBoolFromStr
 0004:000060C0       VarUtils.VarBstrFromCy
 0004:000060C4       VarUtils.VarBstrFromDate
 0004:000060C8       VarUtils.VarBstrFromBool
 0004:000060CC       VarUtils..5
 0004:000060D0       Variants.EmptyParam
 0004:000060E0       Variants.VarDispProc
 0004:000060E4       Variants.ClearAnyProc
 0004:000060E8       Variants.ChangeAnyProc
 0004:000060EC       Variants.RefAnyProc
 0004:000060F0       Variants..81
 0004:000060F4       Variants.LVarTypes
 0004:000060F8       Variants.LVarTypeSync
 0004:00006110       TypInfo..5
 0004:00006114       Classes.GlobalNameSpace
 0004:00006118       Classes.IsUniqueGlobalComponentNameProc
 0004:0000611C       Classes..66
 0004:00006120       Classes.IntConstList
 0004:00006124       Classes.RegGroups
 0004:00006128       Classes.FindGlobalComponentProcs
 0004:0000612C       Classes.GlobalFixupList
 0004:00006130       Classes.InstBlockList
 0004:00006134       Classes.InstFreeList
 0004:00006138       CodeHookIntf.DllHandle
 0004:0000613C       CodeHookTest.GCodeHook
 0004:00006140       CodeHookTest.GCodeHookHelper
 0004:00006144       CodeHookTest.E
 0005:00000000       System.RaiseListPtr
 0005:00000004       System.InOutRes
 0005:00000008       madExcept.LastExceptObject
 0005:0000000C       madExcept.LastExceptAddr
 0005:00000010       madExcept.LastContext
 0005:000000DC       madExcept.isapiBugReport
 0005:000000E0       madExcept.isapiExceptAddr
 0005:000000E4       Classes.GlobalLoaded
 0005:000000E8       Classes.GlobalLists
 0005:000000EC       SysInit.TlsLast


Line numbers for madLinkDisAsm(madLinkDisAsm.pas) segment .itext

    19 0002:000001A4    27 0002:000001AD    30 0002:000001BA

Line numbers for CodeHookIntf(CodeHookIntf.pas) segment .text

   165 0001:000917FC   166 0001:00091803   167 0001:00091817   168 0001:0009181C
   169 0001:00091836   171 0001:00091843   172 0001:0009184A   173 0001:00091850
   175 0001:0009185D   176 0001:0009186A   177 0001:0009187D   179 0001:00091886
   180 0001:0009189B   181 0001:000918A4   184 0001:000918C0   186 0001:000918DA
   189 0001:000919D8   190 0001:000919DB   192 0001:000919E2   193 0001:000919EB
   195 0001:000919F7   196 0001:000919FE   218 0001:00091A02

Line numbers for CodeHookTest(CodeHookTest.dpr) segment .text

    35 0001:00091BCC    36 0001:00091BD3    37 0001:00091BEA    44 0001:00091C00
    45 0001:00091C06    46 0001:00091C13    47 0001:00091C22    48 0001:00091C31
    49 0001:00091C40    51 0001:00091C64    52 0001:00091C7D    53 0001:00091C8F
    58 0001:00091CF0    59 0001:00091D13    60 0001:00091D3D    61 0001:00091D45
    71 0001:00091D84    72 0001:00091DAA    73 0001:00091DC0    74 0001:00091DC6
    75 0001:00091DD3    76 0001:00091DE5    78 0001:00091E39    82 0001:00091EC0
    83 0001:00091ECA    84 0001:00091EDA    85 0001:00091EF0

Line numbers for CodeHookTest(CodeHookTest.dpr) segment .itext

    87 0002:000004DC    88 0002:000004FD    89 0002:0000050B    90 0002:00000510
    92 0002:00000530    93 0002:00000535    95 0002:00000556

Bound resource files

c:\program files (x86)\embarcadero\rad studio\7.0\lib\character.res
CodeHookTest.drf


Program entry point at 0002:000004DC
